ARM GAS  C:\Users\HENRYK~1\AppData\Local\Temp\cc9uJZTd.s 			page 1


   1              		.syntax unified
   2              		.cpu cortex-m3
   3              		.fpu softvfp
   4              		.eabi_attribute 20, 1
   5              		.eabi_attribute 21, 1
   6              		.eabi_attribute 23, 3
   7              		.eabi_attribute 24, 1
   8              		.eabi_attribute 25, 1
   9              		.eabi_attribute 26, 1
  10              		.eabi_attribute 30, 6
  11              		.eabi_attribute 34, 1
  12              		.eabi_attribute 18, 4
  13              		.thumb
  14              		.syntax unified
  15              		.file	"communication_api.c"
  16              		.text
  17              	.Ltext0:
  18              		.cfi_sections	.debug_frame
  19              		.section	.text.OpenConnection,"ax",%progbits
  20              		.align	2
  21              		.global	OpenConnection
  22              		.thumb
  23              		.thumb_func
  24              		.type	OpenConnection, %function
  25              	OpenConnection:
  26              	.LFB64:
  27              		.file 1 "communication_api.c"
   1:communication_api.c **** /*******************************************************************************
   2:communication_api.c **** * File Name: communication_api.c  
   3:communication_api.c **** * Version 1.0
   4:communication_api.c **** *
   5:communication_api.c **** * Description:
   6:communication_api.c **** * This file is created by the author . This contains definitions of APIs 
   7:communication_api.c **** * used in structure 'CyBtldr_CommunicationsData' defined in cybtldr_api.h ,
   8:communication_api.c **** * using SPI commuincations component 
   9:communication_api.c **** ********************************************************************************/
  10:communication_api.c **** 
  11:communication_api.c **** #include "communication_api.h"
  12:communication_api.c **** #include <device.h>
  13:communication_api.c **** 
  14:communication_api.c **** /*******************************************************************************
  15:communication_api.c **** * Function Name: OpenConnection
  16:communication_api.c **** ********************************************************************************
  17:communication_api.c **** *
  18:communication_api.c **** * Summary:
  19:communication_api.c **** *  Initializes the communications component : In this case UART
  20:communication_api.c **** *
  21:communication_api.c **** * Parameters:  
  22:communication_api.c **** *  void
  23:communication_api.c **** *
  24:communication_api.c **** * Return: 
  25:communication_api.c **** *  Returns a flag to indicate whether the operation was successful or not
  26:communication_api.c **** *
  27:communication_api.c **** *
  28:communication_api.c **** *******************************************************************************/
  29:communication_api.c **** int OpenConnection(void)
  30:communication_api.c **** {
ARM GAS  C:\Users\HENRYK~1\AppData\Local\Temp\cc9uJZTd.s 			page 2


  28              		.loc 1 30 0
  29              		.cfi_startproc
  30              		@ args = 0, pretend = 0, frame = 0
  31              		@ frame_needed = 1, uses_anonymous_args = 0
  32 0000 80B5     		push	{r7, lr}
  33              		.cfi_def_cfa_offset 8
  34              		.cfi_offset 7, -8
  35              		.cfi_offset 14, -4
  36 0002 00AF     		add	r7, sp, #0
  37              		.cfi_def_cfa_register 7
  31:communication_api.c **** 	UART_Start();
  38              		.loc 1 31 0
  39 0004 FFF7FEFF 		bl	UART_Start
  32:communication_api.c **** 	return(CYRET_SUCCESS);
  40              		.loc 1 32 0
  41 0008 0023     		movs	r3, #0
  33:communication_api.c **** }
  42              		.loc 1 33 0
  43 000a 1846     		mov	r0, r3
  44 000c 80BD     		pop	{r7, pc}
  45              		.cfi_endproc
  46              	.LFE64:
  47              		.size	OpenConnection, .-OpenConnection
  48 000e 00BF     		.section	.text.CloseConnection,"ax",%progbits
  49              		.align	2
  50              		.global	CloseConnection
  51              		.thumb
  52              		.thumb_func
  53              		.type	CloseConnection, %function
  54              	CloseConnection:
  55              	.LFB65:
  34:communication_api.c **** 
  35:communication_api.c **** 
  36:communication_api.c **** /*******************************************************************************
  37:communication_api.c **** * Function Name: CloseConnection
  38:communication_api.c **** ********************************************************************************
  39:communication_api.c **** *
  40:communication_api.c **** * Summary:
  41:communication_api.c **** *  Clears the status and stops the communications component (UART).
  42:communication_api.c **** *
  43:communication_api.c **** * Parameters:  
  44:communication_api.c **** *  void
  45:communication_api.c **** *
  46:communication_api.c **** * Return: 
  47:communication_api.c **** *  Returns a flag to indicate whether the operation was successful or not
  48:communication_api.c **** *
  49:communication_api.c **** *
  50:communication_api.c **** *******************************************************************************/
  51:communication_api.c **** int CloseConnection(void)
  52:communication_api.c **** {
  56              		.loc 1 52 0
  57              		.cfi_startproc
  58              		@ args = 0, pretend = 0, frame = 0
  59              		@ frame_needed = 1, uses_anonymous_args = 0
  60 0000 80B5     		push	{r7, lr}
  61              		.cfi_def_cfa_offset 8
  62              		.cfi_offset 7, -8
ARM GAS  C:\Users\HENRYK~1\AppData\Local\Temp\cc9uJZTd.s 			page 3


  63              		.cfi_offset 14, -4
  64 0002 00AF     		add	r7, sp, #0
  65              		.cfi_def_cfa_register 7
  53:communication_api.c **** 	UART_Stop();
  66              		.loc 1 53 0
  67 0004 FFF7FEFF 		bl	UART_Stop
  54:communication_api.c **** 	return(CYRET_SUCCESS);
  68              		.loc 1 54 0
  69 0008 0023     		movs	r3, #0
  55:communication_api.c **** }
  70              		.loc 1 55 0
  71 000a 1846     		mov	r0, r3
  72 000c 80BD     		pop	{r7, pc}
  73              		.cfi_endproc
  74              	.LFE65:
  75              		.size	CloseConnection, .-CloseConnection
  76 000e 00BF     		.section	.text.WriteData,"ax",%progbits
  77              		.align	2
  78              		.global	WriteData
  79              		.thumb
  80              		.thumb_func
  81              		.type	WriteData, %function
  82              	WriteData:
  83              	.LFB66:
  56:communication_api.c **** 
  57:communication_api.c **** /*******************************************************************************
  58:communication_api.c **** * Function Name: WriteData
  59:communication_api.c **** ********************************************************************************
  60:communication_api.c **** *
  61:communication_api.c **** * Summary:
  62:communication_api.c **** *  Writes the specified number of bytes using the communications component (UART)
  63:communication_api.c **** *
  64:communication_api.c **** * Parameters:  
  65:communication_api.c **** *  wrData - Pointer to write data buffer
  66:communication_api.c **** *  byteCnt - No. of bytes to be written 
  67:communication_api.c **** *
  68:communication_api.c **** * Return: 
  69:communication_api.c **** *  Returns a flag to indicate whether the operation was successful or not
  70:communication_api.c **** *
  71:communication_api.c **** *
  72:communication_api.c **** *******************************************************************************/
  73:communication_api.c **** int WriteData(uint8* wrData, int byteCnt)
  74:communication_api.c **** {
  84              		.loc 1 74 0
  85              		.cfi_startproc
  86              		@ args = 0, pretend = 0, frame = 16
  87              		@ frame_needed = 1, uses_anonymous_args = 0
  88 0000 80B5     		push	{r7, lr}
  89              		.cfi_def_cfa_offset 8
  90              		.cfi_offset 7, -8
  91              		.cfi_offset 14, -4
  92 0002 84B0     		sub	sp, sp, #16
  93              		.cfi_def_cfa_offset 24
  94 0004 00AF     		add	r7, sp, #0
  95              		.cfi_def_cfa_register 7
  96 0006 7860     		str	r0, [r7, #4]
  97 0008 3960     		str	r1, [r7]
ARM GAS  C:\Users\HENRYK~1\AppData\Local\Temp\cc9uJZTd.s 			page 4


  75:communication_api.c **** 	uint16 timeOut =1;
  98              		.loc 1 75 0
  99 000a 0123     		movs	r3, #1
 100 000c FB81     		strh	r3, [r7, #14]	@ movhi
  76:communication_api.c **** 		
  77:communication_api.c **** 	/* Clears TX and RX FIFOs and the status registers */
  78:communication_api.c **** 	UART_ClearRxBuffer();
 101              		.loc 1 78 0
 102 000e FFF7FEFF 		bl	UART_ClearRxBuffer
  79:communication_api.c **** 	UART_ClearTxBuffer();
 103              		.loc 1 79 0
 104 0012 FFF7FEFF 		bl	UART_ClearTxBuffer
  80:communication_api.c **** 	
  81:communication_api.c **** 	/* Send the data*/   
  82:communication_api.c **** 	UART_PutArray(wrData, byteCnt);
 105              		.loc 1 82 0
 106 0016 3B68     		ldr	r3, [r7]
 107 0018 DBB2     		uxtb	r3, r3
 108 001a 1946     		mov	r1, r3
 109 001c 7868     		ldr	r0, [r7, #4]
 110 001e FFF7FEFF 		bl	UART_PutArray
  83:communication_api.c **** 	
  84:communication_api.c ****  	/* Wait till send operation is complete or timeout  */
  85:communication_api.c **** 	while(!(UART_ReadTxStatus() & UART_TX_STS_COMPLETE))
 111              		.loc 1 85 0
 112 0022 08E0     		b	.L6
 113              	.L8:
  86:communication_api.c **** 	{
  87:communication_api.c **** 		timeOut++;
 114              		.loc 1 87 0
 115 0024 FB89     		ldrh	r3, [r7, #14]
 116 0026 0133     		adds	r3, r3, #1
 117 0028 FB81     		strh	r3, [r7, #14]	@ movhi
  88:communication_api.c **** 		/* Check for timeout and if so exit with communication error code*/
  89:communication_api.c **** 		if(timeOut == 0)
 118              		.loc 1 89 0
 119 002a FB89     		ldrh	r3, [r7, #14]
 120 002c 002B     		cmp	r3, #0
 121 002e 02D1     		bne	.L6
  90:communication_api.c **** 		{
  91:communication_api.c **** 			return(CYRET_ERR_COMM_MASK);
 122              		.loc 1 91 0
 123 0030 4FF40053 		mov	r3, #8192
 124 0034 07E0     		b	.L7
 125              	.L6:
  85:communication_api.c **** 	{
 126              		.loc 1 85 0
 127 0036 FFF7FEFF 		bl	UART_ReadTxStatus
 128 003a 0346     		mov	r3, r0
 129 003c 03F00103 		and	r3, r3, #1
 130 0040 002B     		cmp	r3, #0
 131 0042 EFD0     		beq	.L8
  92:communication_api.c **** 		}	
  93:communication_api.c **** 	}
  94:communication_api.c **** 				
  95:communication_api.c **** 	return(CYRET_SUCCESS);
 132              		.loc 1 95 0
ARM GAS  C:\Users\HENRYK~1\AppData\Local\Temp\cc9uJZTd.s 			page 5


 133 0044 0023     		movs	r3, #0
 134              	.L7:
  96:communication_api.c **** }
 135              		.loc 1 96 0
 136 0046 1846     		mov	r0, r3
 137 0048 1037     		adds	r7, r7, #16
 138              		.cfi_def_cfa_offset 8
 139 004a BD46     		mov	sp, r7
 140              		.cfi_def_cfa_register 13
 141              		@ sp needed
 142 004c 80BD     		pop	{r7, pc}
 143              		.cfi_endproc
 144              	.LFE66:
 145              		.size	WriteData, .-WriteData
 146 004e 00BF     		.section	.text.ReadData,"ax",%progbits
 147              		.align	2
 148              		.global	ReadData
 149              		.thumb
 150              		.thumb_func
 151              		.type	ReadData, %function
 152              	ReadData:
 153              	.LFB67:
  97:communication_api.c **** 
  98:communication_api.c **** 
  99:communication_api.c **** /*******************************************************************************
 100:communication_api.c **** * Function Name: ReadData
 101:communication_api.c **** ********************************************************************************
 102:communication_api.c **** *
 103:communication_api.c **** * Summary:
 104:communication_api.c **** *  Reads the specified number of bytes usign the communications component (UART)
 105:communication_api.c **** *
 106:communication_api.c **** * Parameters:  
 107:communication_api.c **** *  rdData - Pointer to read data buffer
 108:communication_api.c **** *  byteCnt - No. of bytes to be read 
 109:communication_api.c **** *
 110:communication_api.c **** * Return: 
 111:communication_api.c **** *  Returns a flag to indicate whether the operation was successful or not
 112:communication_api.c **** *
 113:communication_api.c **** *
 114:communication_api.c **** *******************************************************************************/
 115:communication_api.c **** int ReadData(uint8* rdData, int byteCnt)
 116:communication_api.c **** {
 154              		.loc 1 116 0
 155              		.cfi_startproc
 156              		@ args = 0, pretend = 0, frame = 16
 157              		@ frame_needed = 1, uses_anonymous_args = 0
 158 0000 90B5     		push	{r4, r7, lr}
 159              		.cfi_def_cfa_offset 12
 160              		.cfi_offset 4, -12
 161              		.cfi_offset 7, -8
 162              		.cfi_offset 14, -4
 163 0002 85B0     		sub	sp, sp, #20
 164              		.cfi_def_cfa_offset 32
 165 0004 00AF     		add	r7, sp, #0
 166              		.cfi_def_cfa_register 7
 167 0006 7860     		str	r0, [r7, #4]
 168 0008 3960     		str	r1, [r7]
ARM GAS  C:\Users\HENRYK~1\AppData\Local\Temp\cc9uJZTd.s 			page 6


 117:communication_api.c **** 	uint16 timeOut =1;
 169              		.loc 1 117 0
 170 000a 0123     		movs	r3, #1
 171 000c FB81     		strh	r3, [r7, #14]	@ movhi
 118:communication_api.c **** 	uint8 dataIndexCntr = 0;
 172              		.loc 1 118 0
 173 000e 0023     		movs	r3, #0
 174 0010 7B73     		strb	r3, [r7, #13]
 119:communication_api.c ****     
 120:communication_api.c **** 	
 121:communication_api.c **** 	/* Clears TX and RX FIFOs and the status registers */	
 122:communication_api.c **** 	UART_ClearRxBuffer();
 175              		.loc 1 122 0
 176 0012 FFF7FEFF 		bl	UART_ClearRxBuffer
 123:communication_api.c **** 	UART_ClearTxBuffer();
 177              		.loc 1 123 0
 178 0016 FFF7FEFF 		bl	UART_ClearTxBuffer
 124:communication_api.c **** 	
 125:communication_api.c **** 	/* Wait until timeout  */
 126:communication_api.c **** 	while(UART_GetRxBufferSize() == 0u)
 179              		.loc 1 126 0
 180 001a 08E0     		b	.L10
 181              	.L12:
 127:communication_api.c **** 	{
 128:communication_api.c **** 		timeOut++;
 182              		.loc 1 128 0
 183 001c FB89     		ldrh	r3, [r7, #14]
 184 001e 0133     		adds	r3, r3, #1
 185 0020 FB81     		strh	r3, [r7, #14]	@ movhi
 129:communication_api.c **** 		/* Check for timeout and if so exit with communication error code*/
 130:communication_api.c **** 		if(timeOut == 0)
 186              		.loc 1 130 0
 187 0022 FB89     		ldrh	r3, [r7, #14]
 188 0024 002B     		cmp	r3, #0
 189 0026 02D1     		bne	.L10
 131:communication_api.c **** 		{			
 132:communication_api.c **** 			return(CYRET_ERR_COMM_MASK);
 190              		.loc 1 132 0
 191 0028 4FF40053 		mov	r3, #8192
 192 002c 1BE0     		b	.L11
 193              	.L10:
 126:communication_api.c **** 	{
 194              		.loc 1 126 0
 195 002e FFF7FEFF 		bl	UART_GetRxBufferSize
 196 0032 0346     		mov	r3, r0
 197 0034 002B     		cmp	r3, #0
 198 0036 F1D0     		beq	.L12
 133:communication_api.c **** 		}	
 134:communication_api.c **** 	}
 135:communication_api.c **** 	
 136:communication_api.c ****     
 137:communication_api.c **** 	/* Read the data bytes */	
 138:communication_api.c **** 	while (byteCnt>0)
 199              		.loc 1 138 0
 200 0038 11E0     		b	.L13
 201              	.L14:
 139:communication_api.c **** 	{
ARM GAS  C:\Users\HENRYK~1\AppData\Local\Temp\cc9uJZTd.s 			page 7


 140:communication_api.c **** 		if(UART_GetRxBufferSize() > 0u)
 202              		.loc 1 140 0
 203 003a FFF7FEFF 		bl	UART_GetRxBufferSize
 204 003e 0346     		mov	r3, r0
 205 0040 002B     		cmp	r3, #0
 206 0042 0CD0     		beq	.L13
 141:communication_api.c **** 		{
 142:communication_api.c **** 		rdData[dataIndexCntr]=UART_GetChar();
 207              		.loc 1 142 0
 208 0044 7B7B     		ldrb	r3, [r7, #13]	@ zero_extendqisi2
 209 0046 7A68     		ldr	r2, [r7, #4]
 210 0048 D418     		adds	r4, r2, r3
 211 004a FFF7FEFF 		bl	UART_GetChar
 212 004e 0346     		mov	r3, r0
 213 0050 2370     		strb	r3, [r4]
 143:communication_api.c **** 		dataIndexCntr++;
 214              		.loc 1 143 0
 215 0052 7B7B     		ldrb	r3, [r7, #13]	@ zero_extendqisi2
 216 0054 0133     		adds	r3, r3, #1
 217 0056 7B73     		strb	r3, [r7, #13]
 144:communication_api.c **** 		byteCnt--;
 218              		.loc 1 144 0
 219 0058 3B68     		ldr	r3, [r7]
 220 005a 013B     		subs	r3, r3, #1
 221 005c 3B60     		str	r3, [r7]
 222              	.L13:
 138:communication_api.c **** 	{
 223              		.loc 1 138 0
 224 005e 3B68     		ldr	r3, [r7]
 225 0060 002B     		cmp	r3, #0
 226 0062 EADC     		bgt	.L14
 145:communication_api.c **** 		}
 146:communication_api.c **** 	}
 147:communication_api.c **** 	
 148:communication_api.c **** 	return(CYRET_SUCCESS);
 227              		.loc 1 148 0
 228 0064 0023     		movs	r3, #0
 229              	.L11:
 149:communication_api.c **** }
 230              		.loc 1 149 0
 231 0066 1846     		mov	r0, r3
 232 0068 1437     		adds	r7, r7, #20
 233              		.cfi_def_cfa_offset 12
 234 006a BD46     		mov	sp, r7
 235              		.cfi_def_cfa_register 13
 236              		@ sp needed
 237 006c 90BD     		pop	{r4, r7, pc}
 238              		.cfi_endproc
 239              	.LFE67:
 240              		.size	ReadData, .-ReadData
 241 006e 00BF     		.text
 242              	.Letext0:
 243              		.file 2 "c:\\program files (x86)\\cypress\\psoc creator\\4.2\\psoc creator\\import\\gnu\\arm\\5.4.
 244              		.file 3 "c:\\program files (x86)\\cypress\\psoc creator\\4.2\\psoc creator\\import\\gnu\\arm\\5.4.
 245              		.file 4 "Generated_Source\\PSoC5/cytypes.h"
 246              		.file 5 "Generated_Source\\PSoC5/core_cm3.h"