ARM GAS  C:\Users\HENRYK~1\AppData\Local\Temp\ccK7BKsh.s 			page 1


   1              		.syntax unified
   2              		.cpu cortex-m3
   3              		.fpu softvfp
   4              		.eabi_attribute 20, 1
   5              		.eabi_attribute 21, 1
   6              		.eabi_attribute 23, 3
   7              		.eabi_attribute 24, 1
   8              		.eabi_attribute 25, 1
   9              		.eabi_attribute 26, 1
  10              		.eabi_attribute 30, 6
  11              		.eabi_attribute 34, 1
  12              		.eabi_attribute 18, 4
  13              		.thumb
  14              		.syntax unified
  15              		.file	"cybtldr_api.c"
  16              		.text
  17              	.Ltext0:
  18              		.cfi_sections	.debug_frame
  19              		.comm	g_validRows,256,4
  20              		.bss
  21              		.align	2
  22              	g_comm:
  23 0000 00000000 		.space	4
  24              		.section	.text.CyBtldr_TransferData,"ax",%progbits
  25              		.align	2
  26              		.global	CyBtldr_TransferData
  27              		.thumb
  28              		.thumb_func
  29              		.type	CyBtldr_TransferData, %function
  30              	CyBtldr_TransferData:
  31              	.LFB1:
  32              		.file 1 "cybtldr_api.c"
   1:cybtldr_api.c **** /*******************************************************************************
   2:cybtldr_api.c **** * Copyright 2011-2012, Cypress Semiconductor Corporation.  All rights reserved.
   3:cybtldr_api.c **** * You may use this file only in accordance with the license, terms, conditions, 
   4:cybtldr_api.c **** * disclaimers, and limitations in the end user license agreement accompanying 
   5:cybtldr_api.c **** * the software package with which this file was provided.
   6:cybtldr_api.c **** ********************************************************************************/
   7:cybtldr_api.c **** 
   8:cybtldr_api.c **** #include "cybtldr_command.h"
   9:cybtldr_api.c **** #include "cybtldr_api.h"
  10:cybtldr_api.c **** 
  11:cybtldr_api.c **** /* The highest number of memory arrays for any device. This includes flash and EEPROM arrays */
  12:cybtldr_api.c **** #define MAX_DEV_ARRAYS    0x80
  13:cybtldr_api.c **** /* The default value if a flash array has not yet received data */
  14:cybtldr_api.c **** #define NO_FLASH_ARRAY_DATA 0
  15:cybtldr_api.c **** /* The maximum number of flash arrays */
  16:cybtldr_api.c **** #define MAX_FLASH_ARRAYS 0x40
  17:cybtldr_api.c **** /* The minimum array id for EEPROM arrays. */
  18:cybtldr_api.c **** #define MIN_EEPROM_ARRAY 0x40
  19:cybtldr_api.c **** 
  20:cybtldr_api.c **** unsigned long g_validRows[MAX_FLASH_ARRAYS];
  21:cybtldr_api.c **** static CyBtldr_CommunicationsData* g_comm;
  22:cybtldr_api.c **** 
  23:cybtldr_api.c **** int CyBtldr_TransferData(unsigned char* inBuf, int inSize, unsigned char* outBuf, int outSize)
  24:cybtldr_api.c **** {
  33              		.loc 1 24 0
ARM GAS  C:\Users\HENRYK~1\AppData\Local\Temp\ccK7BKsh.s 			page 2


  34              		.cfi_startproc
  35              		@ args = 0, pretend = 0, frame = 24
  36              		@ frame_needed = 1, uses_anonymous_args = 0
  37 0000 80B5     		push	{r7, lr}
  38              		.cfi_def_cfa_offset 8
  39              		.cfi_offset 7, -8
  40              		.cfi_offset 14, -4
  41 0002 86B0     		sub	sp, sp, #24
  42              		.cfi_def_cfa_offset 32
  43 0004 00AF     		add	r7, sp, #0
  44              		.cfi_def_cfa_register 7
  45 0006 F860     		str	r0, [r7, #12]
  46 0008 B960     		str	r1, [r7, #8]
  47 000a 7A60     		str	r2, [r7, #4]
  48 000c 3B60     		str	r3, [r7]
  25:cybtldr_api.c ****     int err = g_comm->WriteData(inBuf, inSize);
  49              		.loc 1 25 0
  50 000e 0E4B     		ldr	r3, .L5
  51 0010 1B68     		ldr	r3, [r3]
  52 0012 DB68     		ldr	r3, [r3, #12]
  53 0014 B968     		ldr	r1, [r7, #8]
  54 0016 F868     		ldr	r0, [r7, #12]
  55 0018 9847     		blx	r3
  56 001a 7861     		str	r0, [r7, #20]
  26:cybtldr_api.c **** 
  27:cybtldr_api.c ****     if (CYRET_SUCCESS == err)
  57              		.loc 1 27 0
  58 001c 7B69     		ldr	r3, [r7, #20]
  59 001e 002B     		cmp	r3, #0
  60 0020 06D1     		bne	.L2
  28:cybtldr_api.c ****         err = g_comm->ReadData(outBuf, outSize);
  61              		.loc 1 28 0
  62 0022 094B     		ldr	r3, .L5
  63 0024 1B68     		ldr	r3, [r3]
  64 0026 9B68     		ldr	r3, [r3, #8]
  65 0028 3968     		ldr	r1, [r7]
  66 002a 7868     		ldr	r0, [r7, #4]
  67 002c 9847     		blx	r3
  68 002e 7861     		str	r0, [r7, #20]
  69              	.L2:
  29:cybtldr_api.c **** 
  30:cybtldr_api.c ****     if (CYRET_SUCCESS != err)
  70              		.loc 1 30 0
  71 0030 7B69     		ldr	r3, [r7, #20]
  72 0032 002B     		cmp	r3, #0
  73 0034 03D0     		beq	.L3
  31:cybtldr_api.c ****         err |= CYRET_ERR_COMM_MASK;
  74              		.loc 1 31 0
  75 0036 7B69     		ldr	r3, [r7, #20]
  76 0038 43F40053 		orr	r3, r3, #8192
  77 003c 7B61     		str	r3, [r7, #20]
  78              	.L3:
  32:cybtldr_api.c **** 
  33:cybtldr_api.c ****     return err;
  79              		.loc 1 33 0
  80 003e 7B69     		ldr	r3, [r7, #20]
  34:cybtldr_api.c **** }
ARM GAS  C:\Users\HENRYK~1\AppData\Local\Temp\ccK7BKsh.s 			page 3


  81              		.loc 1 34 0
  82 0040 1846     		mov	r0, r3
  83 0042 1837     		adds	r7, r7, #24
  84              		.cfi_def_cfa_offset 8
  85 0044 BD46     		mov	sp, r7
  86              		.cfi_def_cfa_register 13
  87              		@ sp needed
  88 0046 80BD     		pop	{r7, pc}
  89              	.L6:
  90              		.align	2
  91              	.L5:
  92 0048 00000000 		.word	g_comm
  93              		.cfi_endproc
  94              	.LFE1:
  95              		.size	CyBtldr_TransferData, .-CyBtldr_TransferData
  96              		.section	.text.CyBtldr_ValidateRow,"ax",%progbits
  97              		.align	2
  98              		.global	CyBtldr_ValidateRow
  99              		.thumb
 100              		.thumb_func
 101              		.type	CyBtldr_ValidateRow, %function
 102              	CyBtldr_ValidateRow:
 103              	.LFB2:
  35:cybtldr_api.c **** 
  36:cybtldr_api.c **** int CyBtldr_ValidateRow(unsigned char arrayId, unsigned short rowNum)
  37:cybtldr_api.c **** {
 104              		.loc 1 37 0
 105              		.cfi_startproc
 106              		@ args = 0, pretend = 0, frame = 1056
 107              		@ frame_needed = 1, uses_anonymous_args = 0
 108 0000 90B5     		push	{r4, r7, lr}
 109              		.cfi_def_cfa_offset 12
 110              		.cfi_offset 4, -12
 111              		.cfi_offset 7, -8
 112              		.cfi_offset 14, -4
 113 0002 ADF22C4D 		subw	sp, sp, #1068
 114              		.cfi_def_cfa_offset 1080
 115 0006 02AF     		add	r7, sp, #8
 116              		.cfi_def_cfa 7, 1072
 117 0008 0246     		mov	r2, r0
 118 000a FB1D     		adds	r3, r7, #7
 119 000c 1A70     		strb	r2, [r3]
 120 000e 3B1D     		adds	r3, r7, #4
 121 0010 0A46     		mov	r2, r1	@ movhi
 122 0012 1A80     		strh	r2, [r3]	@ movhi
  38:cybtldr_api.c ****     unsigned long inSize;
  39:cybtldr_api.c ****     unsigned long outSize;
  40:cybtldr_api.c ****     unsigned short minRow = 0;
 123              		.loc 1 40 0
 124 0014 0023     		movs	r3, #0
 125 0016 A7F81234 		strh	r3, [r7, #1042]	@ movhi
  41:cybtldr_api.c ****     unsigned short maxRow = 0;
 126              		.loc 1 41 0
 127 001a 0023     		movs	r3, #0
 128 001c A7F81034 		strh	r3, [r7, #1040]	@ movhi
  42:cybtldr_api.c ****     unsigned char inBuf[MAX_COMMAND_SIZE];
  43:cybtldr_api.c ****     unsigned char outBuf[MAX_COMMAND_SIZE];
ARM GAS  C:\Users\HENRYK~1\AppData\Local\Temp\ccK7BKsh.s 			page 4


  44:cybtldr_api.c ****     unsigned char status = CYRET_SUCCESS;
 129              		.loc 1 44 0
 130 0020 07F10F03 		add	r3, r7, #15
 131 0024 0022     		movs	r2, #0
 132 0026 1A70     		strb	r2, [r3]
  45:cybtldr_api.c ****     int err = CYRET_SUCCESS;
 133              		.loc 1 45 0
 134 0028 0023     		movs	r3, #0
 135 002a C7F81C34 		str	r3, [r7, #1052]
  46:cybtldr_api.c **** 
  47:cybtldr_api.c ****     if (arrayId < MAX_FLASH_ARRAYS)
 136              		.loc 1 47 0
 137 002e FB1D     		adds	r3, r7, #7
 138 0030 1B78     		ldrb	r3, [r3]	@ zero_extendqisi2
 139 0032 3F2B     		cmp	r3, #63
 140 0034 00F28780 		bhi	.L8
  48:cybtldr_api.c ****     {
  49:cybtldr_api.c ****         if (NO_FLASH_ARRAY_DATA == g_validRows[arrayId])
 141              		.loc 1 49 0
 142 0038 FB1D     		adds	r3, r7, #7
 143 003a 1B78     		ldrb	r3, [r3]	@ zero_extendqisi2
 144 003c 474A     		ldr	r2, .L18
 145 003e 52F82330 		ldr	r3, [r2, r3, lsl #2]
 146 0042 002B     		cmp	r3, #0
 147 0044 5AD1     		bne	.L9
  50:cybtldr_api.c ****         {
  51:cybtldr_api.c ****             err = CyBtldr_CreateGetFlashSizeCmd(arrayId, inBuf, &inSize, &outSize);
 148              		.loc 1 51 0
 149 0046 07F21444 		addw	r4, r7, #1044
 150 004a 07F58362 		add	r2, r7, #1048
 151 004e 07F50471 		add	r1, r7, #528
 152 0052 FB1D     		adds	r3, r7, #7
 153 0054 1878     		ldrb	r0, [r3]	@ zero_extendqisi2
 154 0056 2346     		mov	r3, r4
 155 0058 FFF7FEFF 		bl	CyBtldr_CreateGetFlashSizeCmd
 156 005c C7F81C04 		str	r0, [r7, #1052]
  52:cybtldr_api.c ****             if (CYRET_SUCCESS == err)
 157              		.loc 1 52 0
 158 0060 D7F81C34 		ldr	r3, [r7, #1052]
 159 0064 002B     		cmp	r3, #0
 160 0066 0CD1     		bne	.L10
  53:cybtldr_api.c ****                 err = CyBtldr_TransferData(inBuf, inSize, outBuf, outSize);
 161              		.loc 1 53 0
 162 0068 D7F81834 		ldr	r3, [r7, #1048]
 163 006c 1946     		mov	r1, r3
 164 006e D7F81434 		ldr	r3, [r7, #1044]
 165 0072 07F11002 		add	r2, r7, #16
 166 0076 07F50470 		add	r0, r7, #528
 167 007a FFF7FEFF 		bl	CyBtldr_TransferData
 168 007e C7F81C04 		str	r0, [r7, #1052]
 169              	.L10:
  54:cybtldr_api.c ****             if (CYRET_SUCCESS == err)
 170              		.loc 1 54 0
 171 0082 D7F81C34 		ldr	r3, [r7, #1052]
 172 0086 002B     		cmp	r3, #0
 173 0088 0FD1     		bne	.L11
  55:cybtldr_api.c ****                 err = CyBtldr_ParseGetFlashSizeCmdResult(outBuf, outSize, &minRow, &maxRow, &status
ARM GAS  C:\Users\HENRYK~1\AppData\Local\Temp\ccK7BKsh.s 			page 5


 174              		.loc 1 55 0
 175 008a D7F81414 		ldr	r1, [r7, #1044]
 176 008e 07F58264 		add	r4, r7, #1040
 177 0092 07F21242 		addw	r2, r7, #1042
 178 0096 07F11000 		add	r0, r7, #16
 179 009a 07F10F03 		add	r3, r7, #15
 180 009e 0093     		str	r3, [sp]
 181 00a0 2346     		mov	r3, r4
 182 00a2 FFF7FEFF 		bl	CyBtldr_ParseGetFlashSizeCmdResult
 183 00a6 C7F81C04 		str	r0, [r7, #1052]
 184              	.L11:
  56:cybtldr_api.c ****             if (CYRET_SUCCESS != status)
 185              		.loc 1 56 0
 186 00aa 07F10F03 		add	r3, r7, #15
 187 00ae 1B78     		ldrb	r3, [r3]	@ zero_extendqisi2
 188 00b0 002B     		cmp	r3, #0
 189 00b2 06D0     		beq	.L12
  57:cybtldr_api.c ****                 err = status | CYRET_ERR_BTLDR_MASK;
 190              		.loc 1 57 0
 191 00b4 07F10F03 		add	r3, r7, #15
 192 00b8 1B78     		ldrb	r3, [r3]	@ zero_extendqisi2
 193 00ba 43F48043 		orr	r3, r3, #16384
 194 00be C7F81C34 		str	r3, [r7, #1052]
 195              	.L12:
  58:cybtldr_api.c **** 
  59:cybtldr_api.c ****             if (CYRET_SUCCESS == err)
 196              		.loc 1 59 0
 197 00c2 D7F81C34 		ldr	r3, [r7, #1052]
 198 00c6 002B     		cmp	r3, #0
 199 00c8 18D1     		bne	.L9
  60:cybtldr_api.c ****             {
  61:cybtldr_api.c ****                 if (CYRET_SUCCESS == status)
 200              		.loc 1 61 0
 201 00ca 07F10F03 		add	r3, r7, #15
 202 00ce 1B78     		ldrb	r3, [r3]	@ zero_extendqisi2
 203 00d0 002B     		cmp	r3, #0
 204 00d2 0CD1     		bne	.L13
  62:cybtldr_api.c ****                     g_validRows[arrayId] = (minRow << 16) + maxRow;
 205              		.loc 1 62 0
 206 00d4 FB1D     		adds	r3, r7, #7
 207 00d6 1B78     		ldrb	r3, [r3]	@ zero_extendqisi2
 208 00d8 B7F81224 		ldrh	r2, [r7, #1042]
 209 00dc 1204     		lsls	r2, r2, #16
 210 00de B7F81014 		ldrh	r1, [r7, #1040]
 211 00e2 0A44     		add	r2, r2, r1
 212 00e4 1146     		mov	r1, r2
 213 00e6 1D4A     		ldr	r2, .L18
 214 00e8 42F82310 		str	r1, [r2, r3, lsl #2]
 215 00ec 06E0     		b	.L9
 216              	.L13:
  63:cybtldr_api.c ****                 else
  64:cybtldr_api.c ****                     err = status | CYRET_ERR_BTLDR_MASK;
 217              		.loc 1 64 0
 218 00ee 07F10F03 		add	r3, r7, #15
 219 00f2 1B78     		ldrb	r3, [r3]	@ zero_extendqisi2
 220 00f4 43F48043 		orr	r3, r3, #16384
 221 00f8 C7F81C34 		str	r3, [r7, #1052]
ARM GAS  C:\Users\HENRYK~1\AppData\Local\Temp\ccK7BKsh.s 			page 6


 222              	.L9:
  65:cybtldr_api.c ****             }
  66:cybtldr_api.c ****         }
  67:cybtldr_api.c ****         if (CYRET_SUCCESS == err)
 223              		.loc 1 67 0
 224 00fc D7F81C34 		ldr	r3, [r7, #1052]
 225 0100 002B     		cmp	r3, #0
 226 0102 23D1     		bne	.L16
  68:cybtldr_api.c ****         {
  69:cybtldr_api.c ****             minRow = (unsigned short)(g_validRows[arrayId] >> 16);
 227              		.loc 1 69 0
 228 0104 FB1D     		adds	r3, r7, #7
 229 0106 1B78     		ldrb	r3, [r3]	@ zero_extendqisi2
 230 0108 144A     		ldr	r2, .L18
 231 010a 52F82330 		ldr	r3, [r2, r3, lsl #2]
 232 010e 1B0C     		lsrs	r3, r3, #16
 233 0110 9BB2     		uxth	r3, r3
 234 0112 A7F81234 		strh	r3, [r7, #1042]	@ movhi
  70:cybtldr_api.c ****             maxRow = (unsigned short)g_validRows[arrayId];
 235              		.loc 1 70 0
 236 0116 FB1D     		adds	r3, r7, #7
 237 0118 1B78     		ldrb	r3, [r3]	@ zero_extendqisi2
 238 011a 104A     		ldr	r2, .L18
 239 011c 52F82330 		ldr	r3, [r2, r3, lsl #2]
 240 0120 9BB2     		uxth	r3, r3
 241 0122 A7F81034 		strh	r3, [r7, #1040]	@ movhi
  71:cybtldr_api.c ****             if (rowNum < minRow || rowNum > maxRow)
 242              		.loc 1 71 0
 243 0126 B7F81234 		ldrh	r3, [r7, #1042]
 244 012a 3A1D     		adds	r2, r7, #4
 245 012c 1288     		ldrh	r2, [r2]
 246 012e 9A42     		cmp	r2, r3
 247 0130 05D3     		bcc	.L15
 248              		.loc 1 71 0 is_stmt 0 discriminator 1
 249 0132 B7F81034 		ldrh	r3, [r7, #1040]
 250 0136 3A1D     		adds	r2, r7, #4
 251 0138 1288     		ldrh	r2, [r2]
 252 013a 9A42     		cmp	r2, r3
 253 013c 06D9     		bls	.L16
 254              	.L15:
  72:cybtldr_api.c ****                 err = CYRET_ERR_ROW;
 255              		.loc 1 72 0 is_stmt 1
 256 013e 0A23     		movs	r3, #10
 257 0140 C7F81C34 		str	r3, [r7, #1052]
 258 0144 02E0     		b	.L16
 259              	.L8:
  73:cybtldr_api.c ****         }
  74:cybtldr_api.c ****     }
  75:cybtldr_api.c ****     else
  76:cybtldr_api.c ****         err = CYRET_ERR_ARRAY;
 260              		.loc 1 76 0
 261 0146 0923     		movs	r3, #9
 262 0148 C7F81C34 		str	r3, [r7, #1052]
 263              	.L16:
  77:cybtldr_api.c **** 
  78:cybtldr_api.c ****     return err;
 264              		.loc 1 78 0
ARM GAS  C:\Users\HENRYK~1\AppData\Local\Temp\ccK7BKsh.s 			page 7


 265 014c D7F81C34 		ldr	r3, [r7, #1052]
  79:cybtldr_api.c **** }
 266              		.loc 1 79 0
 267 0150 1846     		mov	r0, r3
 268 0152 07F22447 		addw	r7, r7, #1060
 269              		.cfi_def_cfa_offset 12
 270 0156 BD46     		mov	sp, r7
 271              		.cfi_def_cfa_register 13
 272              		@ sp needed
 273 0158 90BD     		pop	{r4, r7, pc}
 274              	.L19:
 275 015a 00BF     		.align	2
 276              	.L18:
 277 015c 00000000 		.word	g_validRows
 278              		.cfi_endproc
 279              	.LFE2:
 280              		.size	CyBtldr_ValidateRow, .-CyBtldr_ValidateRow
 281              		.section	.text.CyBtldr_StartBootloadOperation,"ax",%progbits
 282              		.align	2
 283              		.global	CyBtldr_StartBootloadOperation
 284              		.thumb
 285              		.thumb_func
 286              		.type	CyBtldr_StartBootloadOperation, %function
 287              	CyBtldr_StartBootloadOperation:
 288              	.LFB3:
  80:cybtldr_api.c **** 
  81:cybtldr_api.c **** 
  82:cybtldr_api.c **** int CyBtldr_StartBootloadOperation(CyBtldr_CommunicationsData* comm, unsigned long expSiId, unsigne
  83:cybtldr_api.c **** {
 289              		.loc 1 83 0
 290              		.cfi_startproc
 291              		@ args = 0, pretend = 0, frame = 1072
 292              		@ frame_needed = 1, uses_anonymous_args = 0
 293 0000 90B5     		push	{r4, r7, lr}
 294              		.cfi_def_cfa_offset 12
 295              		.cfi_offset 4, -12
 296              		.cfi_offset 7, -8
 297              		.cfi_offset 14, -4
 298 0002 ADF23C4D 		subw	sp, sp, #1084
 299              		.cfi_def_cfa_offset 1096
 300 0006 02AF     		add	r7, sp, #8
 301              		.cfi_def_cfa 7, 1088
 302 0008 07F10C04 		add	r4, r7, #12
 303 000c 2060     		str	r0, [r4]
 304 000e 07F10800 		add	r0, r7, #8
 305 0012 0160     		str	r1, [r0]
 306 0014 1146     		mov	r1, r2
 307 0016 3A46     		mov	r2, r7
 308 0018 1360     		str	r3, [r2]
 309 001a FB1D     		adds	r3, r7, #7
 310 001c 0A46     		mov	r2, r1
 311 001e 1A70     		strb	r2, [r3]
  84:cybtldr_api.c ****     const unsigned long SUPPORTED_BOOTLOADER = 0x010000;
 312              		.loc 1 84 0
 313 0020 4FF48033 		mov	r3, #65536
 314 0024 C7F82434 		str	r3, [r7, #1060]
  85:cybtldr_api.c ****     const unsigned long BOOTLOADER_VERSION_MASK = 0xFF0000;
ARM GAS  C:\Users\HENRYK~1\AppData\Local\Temp\ccK7BKsh.s 			page 8


 315              		.loc 1 85 0
 316 0028 4FF47F03 		mov	r3, #16711680
 317 002c C7F82034 		str	r3, [r7, #1056]
  86:cybtldr_api.c ****     unsigned long i;
  87:cybtldr_api.c ****     unsigned long inSize = 0;
 318              		.loc 1 87 0
 319 0030 0023     		movs	r3, #0
 320 0032 C7F81C34 		str	r3, [r7, #1052]
  88:cybtldr_api.c ****     unsigned long outSize = 0;
 321              		.loc 1 88 0
 322 0036 0023     		movs	r3, #0
 323 0038 C7F81834 		str	r3, [r7, #1048]
  89:cybtldr_api.c ****     unsigned long siliconId = 0;
 324              		.loc 1 89 0
 325 003c 0023     		movs	r3, #0
 326 003e C7F81434 		str	r3, [r7, #1044]
  90:cybtldr_api.c ****     unsigned char inBuf[MAX_COMMAND_SIZE];
  91:cybtldr_api.c ****     unsigned char outBuf[MAX_COMMAND_SIZE];
  92:cybtldr_api.c ****     unsigned char siliconRev = 0;
 327              		.loc 1 92 0
 328 0042 07F11303 		add	r3, r7, #19
 329 0046 0022     		movs	r2, #0
 330 0048 1A70     		strb	r2, [r3]
  93:cybtldr_api.c ****     unsigned char status = CYRET_SUCCESS;
 331              		.loc 1 93 0
 332 004a 07F11203 		add	r3, r7, #18
 333 004e 0022     		movs	r2, #0
 334 0050 1A70     		strb	r2, [r3]
  94:cybtldr_api.c ****     int err;
  95:cybtldr_api.c **** 
  96:cybtldr_api.c ****     g_comm = comm;
 335              		.loc 1 96 0
 336 0052 4A4A     		ldr	r2, .L32
 337 0054 07F10C03 		add	r3, r7, #12
 338 0058 1B68     		ldr	r3, [r3]
 339 005a 1360     		str	r3, [r2]
  97:cybtldr_api.c ****     for (i = 0; i < MAX_FLASH_ARRAYS; i++)
 340              		.loc 1 97 0
 341 005c 0023     		movs	r3, #0
 342 005e C7F82C34 		str	r3, [r7, #1068]
 343 0062 0AE0     		b	.L21
 344              	.L22:
  98:cybtldr_api.c ****         g_validRows[i] = NO_FLASH_ARRAY_DATA;
 345              		.loc 1 98 0 discriminator 3
 346 0064 464A     		ldr	r2, .L32+4
 347 0066 D7F82C34 		ldr	r3, [r7, #1068]
 348 006a 0021     		movs	r1, #0
 349 006c 42F82310 		str	r1, [r2, r3, lsl #2]
  97:cybtldr_api.c ****     for (i = 0; i < MAX_FLASH_ARRAYS; i++)
 350              		.loc 1 97 0 discriminator 3
 351 0070 D7F82C34 		ldr	r3, [r7, #1068]
 352 0074 0133     		adds	r3, r3, #1
 353 0076 C7F82C34 		str	r3, [r7, #1068]
 354              	.L21:
  97:cybtldr_api.c ****     for (i = 0; i < MAX_FLASH_ARRAYS; i++)
 355              		.loc 1 97 0 is_stmt 0 discriminator 1
 356 007a D7F82C34 		ldr	r3, [r7, #1068]
ARM GAS  C:\Users\HENRYK~1\AppData\Local\Temp\ccK7BKsh.s 			page 9


 357 007e 3F2B     		cmp	r3, #63
 358 0080 F0D9     		bls	.L22
  99:cybtldr_api.c **** 
 100:cybtldr_api.c ****     err = g_comm->OpenConnection();
 359              		.loc 1 100 0 is_stmt 1
 360 0082 3E4B     		ldr	r3, .L32
 361 0084 1B68     		ldr	r3, [r3]
 362 0086 1B68     		ldr	r3, [r3]
 363 0088 9847     		blx	r3
 364 008a C7F82804 		str	r0, [r7, #1064]
 101:cybtldr_api.c ****     if (CYRET_SUCCESS != err)
 365              		.loc 1 101 0
 366 008e D7F82834 		ldr	r3, [r7, #1064]
 367 0092 002B     		cmp	r3, #0
 368 0094 05D0     		beq	.L23
 102:cybtldr_api.c ****         err |= CYRET_ERR_COMM_MASK;
 369              		.loc 1 102 0
 370 0096 D7F82834 		ldr	r3, [r7, #1064]
 371 009a 43F40053 		orr	r3, r3, #8192
 372 009e C7F82834 		str	r3, [r7, #1064]
 373              	.L23:
 103:cybtldr_api.c **** 
 104:cybtldr_api.c ****     if (CYRET_SUCCESS == err)
 374              		.loc 1 104 0
 375 00a2 D7F82834 		ldr	r3, [r7, #1064]
 376 00a6 002B     		cmp	r3, #0
 377 00a8 0AD1     		bne	.L24
 105:cybtldr_api.c ****         err = CyBtldr_CreateEnterBootLoaderCmd(inBuf, &inSize, &outSize);
 378              		.loc 1 105 0
 379 00aa 07F58362 		add	r2, r7, #1048
 380 00ae 07F21C41 		addw	r1, r7, #1052
 381 00b2 07F50573 		add	r3, r7, #532
 382 00b6 1846     		mov	r0, r3
 383 00b8 FFF7FEFF 		bl	CyBtldr_CreateEnterBootLoaderCmd
 384 00bc C7F82804 		str	r0, [r7, #1064]
 385              	.L24:
 106:cybtldr_api.c ****     if (CYRET_SUCCESS == err)
 386              		.loc 1 106 0
 387 00c0 D7F82834 		ldr	r3, [r7, #1064]
 388 00c4 002B     		cmp	r3, #0
 389 00c6 0CD1     		bne	.L25
 107:cybtldr_api.c ****         err = CyBtldr_TransferData(inBuf, inSize, outBuf, outSize);
 390              		.loc 1 107 0
 391 00c8 D7F81C34 		ldr	r3, [r7, #1052]
 392 00cc 1946     		mov	r1, r3
 393 00ce D7F81834 		ldr	r3, [r7, #1048]
 394 00d2 07F11402 		add	r2, r7, #20
 395 00d6 07F50570 		add	r0, r7, #532
 396 00da FFF7FEFF 		bl	CyBtldr_TransferData
 397 00de C7F82804 		str	r0, [r7, #1064]
 398              	.L25:
 108:cybtldr_api.c ****     if (CYRET_SUCCESS == err)
 399              		.loc 1 108 0
 400 00e2 D7F82834 		ldr	r3, [r7, #1064]
 401 00e6 002B     		cmp	r3, #0
 402 00e8 12D1     		bne	.L26
 109:cybtldr_api.c ****         err = CyBtldr_ParseEnterBootLoaderCmdResult(outBuf, outSize, &siliconId, &siliconRev, blVer
ARM GAS  C:\Users\HENRYK~1\AppData\Local\Temp\ccK7BKsh.s 			page 10


 403              		.loc 1 109 0
 404 00ea D7F81814 		ldr	r1, [r7, #1048]
 405 00ee 07F11304 		add	r4, r7, #19
 406 00f2 07F21442 		addw	r2, r7, #1044
 407 00f6 07F11400 		add	r0, r7, #20
 408 00fa 07F11203 		add	r3, r7, #18
 409 00fe 0193     		str	r3, [sp, #4]
 410 0100 3B46     		mov	r3, r7
 411 0102 1B68     		ldr	r3, [r3]
 412 0104 0093     		str	r3, [sp]
 413 0106 2346     		mov	r3, r4
 414 0108 FFF7FEFF 		bl	CyBtldr_ParseEnterBootLoaderCmdResult
 415 010c C7F82804 		str	r0, [r7, #1064]
 416              	.L26:
 110:cybtldr_api.c **** 
 111:cybtldr_api.c **** 
 112:cybtldr_api.c ****     if (CYRET_SUCCESS == err)
 417              		.loc 1 112 0
 418 0110 D7F82834 		ldr	r3, [r7, #1064]
 419 0114 002B     		cmp	r3, #0
 420 0116 2AD1     		bne	.L27
 113:cybtldr_api.c ****     {
 114:cybtldr_api.c ****         if (CYRET_SUCCESS != status)
 421              		.loc 1 114 0
 422 0118 07F11203 		add	r3, r7, #18
 423 011c 1B78     		ldrb	r3, [r3]	@ zero_extendqisi2
 424 011e 002B     		cmp	r3, #0
 425 0120 06D0     		beq	.L28
 115:cybtldr_api.c ****             err = status | CYRET_ERR_BTLDR_MASK;
 426              		.loc 1 115 0
 427 0122 07F11203 		add	r3, r7, #18
 428 0126 1B78     		ldrb	r3, [r3]	@ zero_extendqisi2
 429 0128 43F48043 		orr	r3, r3, #16384
 430 012c C7F82834 		str	r3, [r7, #1064]
 431              	.L28:
 116:cybtldr_api.c ****         if (expSiId != siliconId || expSiRev != siliconRev)
 432              		.loc 1 116 0
 433 0130 D7F81434 		ldr	r3, [r7, #1044]
 434 0134 07F10802 		add	r2, r7, #8
 435 0138 1268     		ldr	r2, [r2]
 436 013a 9A42     		cmp	r2, r3
 437 013c 06D1     		bne	.L29
 438              		.loc 1 116 0 is_stmt 0 discriminator 1
 439 013e 07F11303 		add	r3, r7, #19
 440 0142 1B78     		ldrb	r3, [r3]	@ zero_extendqisi2
 441 0144 FA1D     		adds	r2, r7, #7
 442 0146 1278     		ldrb	r2, [r2]	@ zero_extendqisi2
 443 0148 9A42     		cmp	r2, r3
 444 014a 03D0     		beq	.L30
 445              	.L29:
 117:cybtldr_api.c ****             err = CYRET_ERR_DEVICE;
 446              		.loc 1 117 0 is_stmt 1
 447 014c 0623     		movs	r3, #6
 448 014e C7F82834 		str	r3, [r7, #1064]
 449 0152 0CE0     		b	.L27
 450              	.L30:
 118:cybtldr_api.c ****         else if ((*blVer & BOOTLOADER_VERSION_MASK) != SUPPORTED_BOOTLOADER)
ARM GAS  C:\Users\HENRYK~1\AppData\Local\Temp\ccK7BKsh.s 			page 11


 451              		.loc 1 118 0
 452 0154 3B46     		mov	r3, r7
 453 0156 1B68     		ldr	r3, [r3]
 454 0158 1A68     		ldr	r2, [r3]
 455 015a D7F82034 		ldr	r3, [r7, #1056]
 456 015e 1A40     		ands	r2, r2, r3
 457 0160 D7F82434 		ldr	r3, [r7, #1060]
 458 0164 9A42     		cmp	r2, r3
 459 0166 02D0     		beq	.L27
 119:cybtldr_api.c ****             err = CYRET_ERR_VERSION;
 460              		.loc 1 119 0
 461 0168 0723     		movs	r3, #7
 462 016a C7F82834 		str	r3, [r7, #1064]
 463              	.L27:
 120:cybtldr_api.c ****     }
 121:cybtldr_api.c **** 
 122:cybtldr_api.c ****     return err;
 464              		.loc 1 122 0
 465 016e D7F82834 		ldr	r3, [r7, #1064]
 123:cybtldr_api.c **** }
 466              		.loc 1 123 0
 467 0172 1846     		mov	r0, r3
 468 0174 07F23447 		addw	r7, r7, #1076
 469              		.cfi_def_cfa_offset 12
 470 0178 BD46     		mov	sp, r7
 471              		.cfi_def_cfa_register 13
 472              		@ sp needed
 473 017a 90BD     		pop	{r4, r7, pc}
 474              	.L33:
 475              		.align	2
 476              	.L32:
 477 017c 00000000 		.word	g_comm
 478 0180 00000000 		.word	g_validRows
 479              		.cfi_endproc
 480              	.LFE3:
 481              		.size	CyBtldr_StartBootloadOperation, .-CyBtldr_StartBootloadOperation
 482              		.section	.text.CyBtldr_GetApplicationStatus,"ax",%progbits
 483              		.align	2
 484              		.global	CyBtldr_GetApplicationStatus
 485              		.thumb
 486              		.thumb_func
 487              		.type	CyBtldr_GetApplicationStatus, %function
 488              	CyBtldr_GetApplicationStatus:
 489              	.LFB4:
 124:cybtldr_api.c **** 
 125:cybtldr_api.c **** int CyBtldr_GetApplicationStatus(unsigned char appID, unsigned char* isValid, unsigned char* isActi
 126:cybtldr_api.c **** {
 490              		.loc 1 126 0
 491              		.cfi_startproc
 492              		@ args = 0, pretend = 0, frame = 1056
 493              		@ frame_needed = 1, uses_anonymous_args = 0
 494 0000 90B5     		push	{r4, r7, lr}
 495              		.cfi_def_cfa_offset 12
 496              		.cfi_offset 4, -12
 497              		.cfi_offset 7, -8
 498              		.cfi_offset 14, -4
 499 0002 ADF22C4D 		subw	sp, sp, #1068
ARM GAS  C:\Users\HENRYK~1\AppData\Local\Temp\ccK7BKsh.s 			page 12


 500              		.cfi_def_cfa_offset 1080
 501 0006 02AF     		add	r7, sp, #8
 502              		.cfi_def_cfa 7, 1072
 503 0008 07F10803 		add	r3, r7, #8
 504 000c 1960     		str	r1, [r3]
 505 000e 3B1D     		adds	r3, r7, #4
 506 0010 1A60     		str	r2, [r3]
 507 0012 07F10F03 		add	r3, r7, #15
 508 0016 0246     		mov	r2, r0
 509 0018 1A70     		strb	r2, [r3]
 127:cybtldr_api.c ****     unsigned long inSize = 0;
 510              		.loc 1 127 0
 511 001a 0023     		movs	r3, #0
 512 001c C7F81834 		str	r3, [r7, #1048]
 128:cybtldr_api.c ****     unsigned long outSize = 0;
 513              		.loc 1 128 0
 514 0020 0023     		movs	r3, #0
 515 0022 C7F81434 		str	r3, [r7, #1044]
 129:cybtldr_api.c ****     unsigned char inBuf[MAX_COMMAND_SIZE];
 130:cybtldr_api.c ****     unsigned char outBuf[MAX_COMMAND_SIZE];
 131:cybtldr_api.c ****     unsigned char status = CYRET_SUCCESS;
 516              		.loc 1 131 0
 517 0026 07F11303 		add	r3, r7, #19
 518 002a 0022     		movs	r2, #0
 519 002c 1A70     		strb	r2, [r3]
 132:cybtldr_api.c ****     int err;
 133:cybtldr_api.c **** 
 134:cybtldr_api.c ****     err = CyBtldr_CreateGetAppStatusCmd(appID, inBuf, &inSize, &outSize);
 520              		.loc 1 134 0
 521 002e 07F21444 		addw	r4, r7, #1044
 522 0032 07F58362 		add	r2, r7, #1048
 523 0036 07F50571 		add	r1, r7, #532
 524 003a 07F10F03 		add	r3, r7, #15
 525 003e 1878     		ldrb	r0, [r3]	@ zero_extendqisi2
 526 0040 2346     		mov	r3, r4
 527 0042 FFF7FEFF 		bl	CyBtldr_CreateGetAppStatusCmd
 528 0046 C7F81C04 		str	r0, [r7, #1052]
 135:cybtldr_api.c ****     if (CYRET_SUCCESS == err)
 529              		.loc 1 135 0
 530 004a D7F81C34 		ldr	r3, [r7, #1052]
 531 004e 002B     		cmp	r3, #0
 532 0050 0CD1     		bne	.L35
 136:cybtldr_api.c ****         err = CyBtldr_TransferData(inBuf, inSize, outBuf, outSize);
 533              		.loc 1 136 0
 534 0052 D7F81834 		ldr	r3, [r7, #1048]
 535 0056 1946     		mov	r1, r3
 536 0058 D7F81434 		ldr	r3, [r7, #1044]
 537 005c 07F11402 		add	r2, r7, #20
 538 0060 07F50570 		add	r0, r7, #532
 539 0064 FFF7FEFF 		bl	CyBtldr_TransferData
 540 0068 C7F81C04 		str	r0, [r7, #1052]
 541              	.L35:
 137:cybtldr_api.c ****     if (CYRET_SUCCESS == err)
 542              		.loc 1 137 0
 543 006c D7F81C34 		ldr	r3, [r7, #1052]
 544 0070 002B     		cmp	r3, #0
 545 0072 10D1     		bne	.L36
ARM GAS  C:\Users\HENRYK~1\AppData\Local\Temp\ccK7BKsh.s 			page 13


 138:cybtldr_api.c ****         err = CyBtldr_ParseGetAppStatusCmdResult(outBuf, outSize, isValid, isActive, &status);
 546              		.loc 1 138 0
 547 0074 D7F81444 		ldr	r4, [r7, #1044]
 548 0078 3B1D     		adds	r3, r7, #4
 549 007a 07F10802 		add	r2, r7, #8
 550 007e 07F11400 		add	r0, r7, #20
 551 0082 07F11301 		add	r1, r7, #19
 552 0086 0091     		str	r1, [sp]
 553 0088 1B68     		ldr	r3, [r3]
 554 008a 1268     		ldr	r2, [r2]
 555 008c 2146     		mov	r1, r4
 556 008e FFF7FEFF 		bl	CyBtldr_ParseGetAppStatusCmdResult
 557 0092 C7F81C04 		str	r0, [r7, #1052]
 558              	.L36:
 139:cybtldr_api.c **** 
 140:cybtldr_api.c ****     if (CYRET_SUCCESS == err)
 559              		.loc 1 140 0
 560 0096 D7F81C34 		ldr	r3, [r7, #1052]
 561 009a 002B     		cmp	r3, #0
 562 009c 0BD1     		bne	.L37
 141:cybtldr_api.c ****     {
 142:cybtldr_api.c ****         if (CYRET_SUCCESS != status)
 563              		.loc 1 142 0
 564 009e 07F11303 		add	r3, r7, #19
 565 00a2 1B78     		ldrb	r3, [r3]	@ zero_extendqisi2
 566 00a4 002B     		cmp	r3, #0
 567 00a6 06D0     		beq	.L37
 143:cybtldr_api.c ****             err = status | CYRET_ERR_BTLDR_MASK;
 568              		.loc 1 143 0
 569 00a8 07F11303 		add	r3, r7, #19
 570 00ac 1B78     		ldrb	r3, [r3]	@ zero_extendqisi2
 571 00ae 43F48043 		orr	r3, r3, #16384
 572 00b2 C7F81C34 		str	r3, [r7, #1052]
 573              	.L37:
 144:cybtldr_api.c ****     }
 145:cybtldr_api.c **** 
 146:cybtldr_api.c ****     return err;
 574              		.loc 1 146 0
 575 00b6 D7F81C34 		ldr	r3, [r7, #1052]
 147:cybtldr_api.c **** }
 576              		.loc 1 147 0
 577 00ba 1846     		mov	r0, r3
 578 00bc 07F22447 		addw	r7, r7, #1060
 579              		.cfi_def_cfa_offset 12
 580 00c0 BD46     		mov	sp, r7
 581              		.cfi_def_cfa_register 13
 582              		@ sp needed
 583 00c2 90BD     		pop	{r4, r7, pc}
 584              		.cfi_endproc
 585              	.LFE4:
 586              		.size	CyBtldr_GetApplicationStatus, .-CyBtldr_GetApplicationStatus
 587              		.section	.text.CyBtldr_SetApplicationStatus,"ax",%progbits
 588              		.align	2
 589              		.global	CyBtldr_SetApplicationStatus
 590              		.thumb
 591              		.thumb_func
 592              		.type	CyBtldr_SetApplicationStatus, %function
ARM GAS  C:\Users\HENRYK~1\AppData\Local\Temp\ccK7BKsh.s 			page 14


 593              	CyBtldr_SetApplicationStatus:
 594              	.LFB5:
 148:cybtldr_api.c **** 
 149:cybtldr_api.c **** int CyBtldr_SetApplicationStatus(unsigned char appID)
 150:cybtldr_api.c **** {
 595              		.loc 1 150 0
 596              		.cfi_startproc
 597              		@ args = 0, pretend = 0, frame = 1048
 598              		@ frame_needed = 1, uses_anonymous_args = 0
 599 0000 90B5     		push	{r4, r7, lr}
 600              		.cfi_def_cfa_offset 12
 601              		.cfi_offset 4, -12
 602              		.cfi_offset 7, -8
 603              		.cfi_offset 14, -4
 604 0002 ADF21C4D 		subw	sp, sp, #1052
 605              		.cfi_def_cfa_offset 1064
 606 0006 00AF     		add	r7, sp, #0
 607              		.cfi_def_cfa_register 7
 608 0008 0246     		mov	r2, r0
 609 000a FB1D     		adds	r3, r7, #7
 610 000c 1A70     		strb	r2, [r3]
 151:cybtldr_api.c ****     unsigned long inSize = 0;
 611              		.loc 1 151 0
 612 000e 0023     		movs	r3, #0
 613 0010 C7F81034 		str	r3, [r7, #1040]
 152:cybtldr_api.c ****     unsigned long outSize = 0;
 614              		.loc 1 152 0
 615 0014 0023     		movs	r3, #0
 616 0016 C7F80C34 		str	r3, [r7, #1036]
 153:cybtldr_api.c ****     unsigned char inBuf[MAX_COMMAND_SIZE];
 154:cybtldr_api.c ****     unsigned char outBuf[MAX_COMMAND_SIZE];
 155:cybtldr_api.c ****     unsigned char status = CYRET_SUCCESS;
 617              		.loc 1 155 0
 618 001a 07F10B03 		add	r3, r7, #11
 619 001e 0022     		movs	r2, #0
 620 0020 1A70     		strb	r2, [r3]
 156:cybtldr_api.c ****     int err;
 157:cybtldr_api.c **** 
 158:cybtldr_api.c ****     err = CyBtldr_CreateSetActiveAppCmd(appID, inBuf, &inSize, &outSize);
 621              		.loc 1 158 0
 622 0022 07F20C44 		addw	r4, r7, #1036
 623 0026 07F58262 		add	r2, r7, #1040
 624 002a 07F50371 		add	r1, r7, #524
 625 002e FB1D     		adds	r3, r7, #7
 626 0030 1878     		ldrb	r0, [r3]	@ zero_extendqisi2
 627 0032 2346     		mov	r3, r4
 628 0034 FFF7FEFF 		bl	CyBtldr_CreateSetActiveAppCmd
 629 0038 C7F81404 		str	r0, [r7, #1044]
 159:cybtldr_api.c ****     if (CYRET_SUCCESS == err)
 630              		.loc 1 159 0
 631 003c D7F81434 		ldr	r3, [r7, #1044]
 632 0040 002B     		cmp	r3, #0
 633 0042 0CD1     		bne	.L40
 160:cybtldr_api.c ****         err = CyBtldr_TransferData(inBuf, inSize, outBuf, outSize);
 634              		.loc 1 160 0
 635 0044 D7F81034 		ldr	r3, [r7, #1040]
 636 0048 1946     		mov	r1, r3
ARM GAS  C:\Users\HENRYK~1\AppData\Local\Temp\ccK7BKsh.s 			page 15


 637 004a D7F80C34 		ldr	r3, [r7, #1036]
 638 004e 07F10C02 		add	r2, r7, #12
 639 0052 07F50370 		add	r0, r7, #524
 640 0056 FFF7FEFF 		bl	CyBtldr_TransferData
 641 005a C7F81404 		str	r0, [r7, #1044]
 642              	.L40:
 161:cybtldr_api.c ****     if (CYRET_SUCCESS == err)
 643              		.loc 1 161 0
 644 005e D7F81434 		ldr	r3, [r7, #1044]
 645 0062 002B     		cmp	r3, #0
 646 0064 0AD1     		bne	.L41
 162:cybtldr_api.c ****         err = CyBtldr_ParseSetActiveAppCmdResult(outBuf, outSize, &status);
 647              		.loc 1 162 0
 648 0066 D7F80C14 		ldr	r1, [r7, #1036]
 649 006a 07F10B02 		add	r2, r7, #11
 650 006e 07F10C03 		add	r3, r7, #12
 651 0072 1846     		mov	r0, r3
 652 0074 FFF7FEFF 		bl	CyBtldr_ParseSetActiveAppCmdResult
 653 0078 C7F81404 		str	r0, [r7, #1044]
 654              	.L41:
 163:cybtldr_api.c **** 
 164:cybtldr_api.c ****     if (CYRET_SUCCESS == err)
 655              		.loc 1 164 0
 656 007c D7F81434 		ldr	r3, [r7, #1044]
 657 0080 002B     		cmp	r3, #0
 658 0082 0BD1     		bne	.L42
 165:cybtldr_api.c ****     {
 166:cybtldr_api.c ****         if (CYRET_SUCCESS != status)
 659              		.loc 1 166 0
 660 0084 07F10B03 		add	r3, r7, #11
 661 0088 1B78     		ldrb	r3, [r3]	@ zero_extendqisi2
 662 008a 002B     		cmp	r3, #0
 663 008c 06D0     		beq	.L42
 167:cybtldr_api.c ****             err = status | CYRET_ERR_BTLDR_MASK;
 664              		.loc 1 167 0
 665 008e 07F10B03 		add	r3, r7, #11
 666 0092 1B78     		ldrb	r3, [r3]	@ zero_extendqisi2
 667 0094 43F48043 		orr	r3, r3, #16384
 668 0098 C7F81434 		str	r3, [r7, #1044]
 669              	.L42:
 168:cybtldr_api.c ****     }
 169:cybtldr_api.c **** 
 170:cybtldr_api.c ****     return err;
 670              		.loc 1 170 0
 671 009c D7F81434 		ldr	r3, [r7, #1044]
 171:cybtldr_api.c **** }
 672              		.loc 1 171 0
 673 00a0 1846     		mov	r0, r3
 674 00a2 07F21C47 		addw	r7, r7, #1052
 675              		.cfi_def_cfa_offset 12
 676 00a6 BD46     		mov	sp, r7
 677              		.cfi_def_cfa_register 13
 678              		@ sp needed
 679 00a8 90BD     		pop	{r4, r7, pc}
 680              		.cfi_endproc
 681              	.LFE5:
 682              		.size	CyBtldr_SetApplicationStatus, .-CyBtldr_SetApplicationStatus
ARM GAS  C:\Users\HENRYK~1\AppData\Local\Temp\ccK7BKsh.s 			page 16


 683 00aa 00BF     		.section	.text.CyBtldr_EndBootloadOperation,"ax",%progbits
 684              		.align	2
 685              		.global	CyBtldr_EndBootloadOperation
 686              		.thumb
 687              		.thumb_func
 688              		.type	CyBtldr_EndBootloadOperation, %function
 689              	CyBtldr_EndBootloadOperation:
 690              	.LFB6:
 172:cybtldr_api.c **** 
 173:cybtldr_api.c **** int CyBtldr_EndBootloadOperation(void)
 174:cybtldr_api.c **** {
 691              		.loc 1 174 0
 692              		.cfi_startproc
 693              		@ args = 0, pretend = 0, frame = 528
 694              		@ frame_needed = 1, uses_anonymous_args = 0
 695 0000 80B5     		push	{r7, lr}
 696              		.cfi_def_cfa_offset 8
 697              		.cfi_offset 7, -8
 698              		.cfi_offset 14, -4
 699 0002 ADF5047D 		sub	sp, sp, #528
 700              		.cfi_def_cfa_offset 536
 701 0006 00AF     		add	r7, sp, #0
 702              		.cfi_def_cfa_register 7
 175:cybtldr_api.c ****     unsigned long inSize;
 176:cybtldr_api.c ****     unsigned long outSize;
 177:cybtldr_api.c ****     unsigned char inBuf[MAX_COMMAND_SIZE];
 178:cybtldr_api.c **** 
 179:cybtldr_api.c ****     int err = CyBtldr_CreateExitBootLoaderCmd(inBuf, &inSize, &outSize);
 703              		.loc 1 179 0
 704 0008 07F50172 		add	r2, r7, #516
 705 000c 07F50271 		add	r1, r7, #520
 706 0010 3B1D     		adds	r3, r7, #4
 707 0012 1846     		mov	r0, r3
 708 0014 FFF7FEFF 		bl	CyBtldr_CreateExitBootLoaderCmd
 709 0018 C7F80C02 		str	r0, [r7, #524]
 180:cybtldr_api.c ****     if (CYRET_SUCCESS == err)
 710              		.loc 1 180 0
 711 001c D7F80C32 		ldr	r3, [r7, #524]
 712 0020 002B     		cmp	r3, #0
 713 0022 1ED1     		bne	.L45
 181:cybtldr_api.c ****     {
 182:cybtldr_api.c ****         err = g_comm->WriteData(inBuf, inSize);
 714              		.loc 1 182 0
 715 0024 144B     		ldr	r3, .L48
 716 0026 1B68     		ldr	r3, [r3]
 717 0028 DB68     		ldr	r3, [r3, #12]
 718 002a D7F80822 		ldr	r2, [r7, #520]
 719 002e 1146     		mov	r1, r2
 720 0030 3A1D     		adds	r2, r7, #4
 721 0032 1046     		mov	r0, r2
 722 0034 9847     		blx	r3
 723 0036 C7F80C02 		str	r0, [r7, #524]
 183:cybtldr_api.c **** 
 184:cybtldr_api.c ****         if (CYRET_SUCCESS == err)
 724              		.loc 1 184 0
 725 003a D7F80C32 		ldr	r3, [r7, #524]
 726 003e 002B     		cmp	r3, #0
ARM GAS  C:\Users\HENRYK~1\AppData\Local\Temp\ccK7BKsh.s 			page 17


 727 0040 05D1     		bne	.L46
 185:cybtldr_api.c ****             err = g_comm->CloseConnection();
 728              		.loc 1 185 0
 729 0042 0D4B     		ldr	r3, .L48
 730 0044 1B68     		ldr	r3, [r3]
 731 0046 5B68     		ldr	r3, [r3, #4]
 732 0048 9847     		blx	r3
 733 004a C7F80C02 		str	r0, [r7, #524]
 734              	.L46:
 186:cybtldr_api.c **** 
 187:cybtldr_api.c ****         if (CYRET_SUCCESS != err)
 735              		.loc 1 187 0
 736 004e D7F80C32 		ldr	r3, [r7, #524]
 737 0052 002B     		cmp	r3, #0
 738 0054 05D0     		beq	.L45
 188:cybtldr_api.c ****             err |= CYRET_ERR_COMM_MASK;
 739              		.loc 1 188 0
 740 0056 D7F80C32 		ldr	r3, [r7, #524]
 741 005a 43F40053 		orr	r3, r3, #8192
 742 005e C7F80C32 		str	r3, [r7, #524]
 743              	.L45:
 189:cybtldr_api.c ****     }
 190:cybtldr_api.c ****     g_comm = NULL;
 744              		.loc 1 190 0
 745 0062 054B     		ldr	r3, .L48
 746 0064 0022     		movs	r2, #0
 747 0066 1A60     		str	r2, [r3]
 191:cybtldr_api.c **** 
 192:cybtldr_api.c ****     return err;
 748              		.loc 1 192 0
 749 0068 D7F80C32 		ldr	r3, [r7, #524]
 193:cybtldr_api.c **** }
 750              		.loc 1 193 0
 751 006c 1846     		mov	r0, r3
 752 006e 07F50477 		add	r7, r7, #528
 753              		.cfi_def_cfa_offset 8
 754 0072 BD46     		mov	sp, r7
 755              		.cfi_def_cfa_register 13
 756              		@ sp needed
 757 0074 80BD     		pop	{r7, pc}
 758              	.L49:
 759 0076 00BF     		.align	2
 760              	.L48:
 761 0078 00000000 		.word	g_comm
 762              		.cfi_endproc
 763              	.LFE6:
 764              		.size	CyBtldr_EndBootloadOperation, .-CyBtldr_EndBootloadOperation
 765              		.section	.text.CyBtldr_ProgramRow,"ax",%progbits
 766              		.align	2
 767              		.global	CyBtldr_ProgramRow
 768              		.thumb
 769              		.thumb_func
 770              		.type	CyBtldr_ProgramRow, %function
 771              	CyBtldr_ProgramRow:
 772              	.LFB7:
 194:cybtldr_api.c **** 
 195:cybtldr_api.c **** int CyBtldr_ProgramRow(unsigned char arrayID, unsigned short rowNum, unsigned char* buf, unsigned s
ARM GAS  C:\Users\HENRYK~1\AppData\Local\Temp\ccK7BKsh.s 			page 18


 196:cybtldr_api.c **** {
 773              		.loc 1 196 0
 774              		.cfi_startproc
 775              		@ args = 0, pretend = 0, frame = 1072
 776              		@ frame_needed = 1, uses_anonymous_args = 0
 777 0000 90B5     		push	{r4, r7, lr}
 778              		.cfi_def_cfa_offset 12
 779              		.cfi_offset 4, -12
 780              		.cfi_offset 7, -8
 781              		.cfi_offset 14, -4
 782 0002 ADF2444D 		subw	sp, sp, #1092
 783              		.cfi_def_cfa_offset 1104
 784 0006 04AF     		add	r7, sp, #16
 785              		.cfi_def_cfa 7, 1088
 786 0008 0446     		mov	r4, r0
 787 000a 0846     		mov	r0, r1
 788 000c 07F10801 		add	r1, r7, #8
 789 0010 0A60     		str	r2, [r1]
 790 0012 1946     		mov	r1, r3
 791 0014 07F10F03 		add	r3, r7, #15
 792 0018 2246     		mov	r2, r4
 793 001a 1A70     		strb	r2, [r3]
 794 001c 07F10C03 		add	r3, r7, #12
 795 0020 0246     		mov	r2, r0	@ movhi
 796 0022 1A80     		strh	r2, [r3]	@ movhi
 797 0024 BB1D     		adds	r3, r7, #6
 798 0026 0A46     		mov	r2, r1	@ movhi
 799 0028 1A80     		strh	r2, [r3]	@ movhi
 197:cybtldr_api.c ****     const int TRANSFER_HEADER_SIZE = 11;
 800              		.loc 1 197 0
 801 002a 0B23     		movs	r3, #11
 802 002c C7F82434 		str	r3, [r7, #1060]
 198:cybtldr_api.c **** 
 199:cybtldr_api.c ****     unsigned char inBuf[MAX_COMMAND_SIZE];
 200:cybtldr_api.c ****     unsigned char outBuf[MAX_COMMAND_SIZE];
 201:cybtldr_api.c ****     unsigned long inSize;
 202:cybtldr_api.c ****     unsigned long outSize;
 203:cybtldr_api.c ****     unsigned long offset = 0;
 803              		.loc 1 203 0
 804 0030 0023     		movs	r3, #0
 805 0032 C7F82C34 		str	r3, [r7, #1068]
 204:cybtldr_api.c ****     unsigned short subBufSize;
 205:cybtldr_api.c ****     unsigned char status = CYRET_SUCCESS;
 806              		.loc 1 205 0
 807 0036 07F11703 		add	r3, r7, #23
 808 003a 0022     		movs	r2, #0
 809 003c 1A70     		strb	r2, [r3]
 206:cybtldr_api.c ****     int err = CYRET_SUCCESS;
 810              		.loc 1 206 0
 811 003e 0023     		movs	r3, #0
 812 0040 C7F82834 		str	r3, [r7, #1064]
 207:cybtldr_api.c ****     
 208:cybtldr_api.c ****     if (arrayID < MAX_FLASH_ARRAYS)
 813              		.loc 1 208 0
 814 0044 07F10F03 		add	r3, r7, #15
 815 0048 1B78     		ldrb	r3, [r3]	@ zero_extendqisi2
 816 004a 3F2B     		cmp	r3, #63
ARM GAS  C:\Users\HENRYK~1\AppData\Local\Temp\ccK7BKsh.s 			page 19


 817 004c 60D8     		bhi	.L52
 209:cybtldr_api.c ****         err = CyBtldr_ValidateRow(arrayID, rowNum);
 818              		.loc 1 209 0
 819 004e 07F10C03 		add	r3, r7, #12
 820 0052 1A88     		ldrh	r2, [r3]
 821 0054 07F10F03 		add	r3, r7, #15
 822 0058 1B78     		ldrb	r3, [r3]	@ zero_extendqisi2
 823 005a 1146     		mov	r1, r2
 824 005c 1846     		mov	r0, r3
 825 005e FFF7FEFF 		bl	CyBtldr_ValidateRow
 826 0062 C7F82804 		str	r0, [r7, #1064]
 210:cybtldr_api.c **** 
 211:cybtldr_api.c ****     //Break row into pieces to ensure we don't send too much for the transfer protocol
 212:cybtldr_api.c ****     while ((CYRET_SUCCESS == err) && ((size - offset + TRANSFER_HEADER_SIZE) > g_comm->MaxTransferS
 827              		.loc 1 212 0
 828 0066 53E0     		b	.L52
 829              	.L57:
 213:cybtldr_api.c ****     {
 214:cybtldr_api.c ****         subBufSize = (unsigned short)(g_comm->MaxTransferSize - TRANSFER_HEADER_SIZE);
 830              		.loc 1 214 0
 831 0068 614B     		ldr	r3, .L62
 832 006a 1B68     		ldr	r3, [r3]
 833 006c 1B69     		ldr	r3, [r3, #16]
 834 006e 9AB2     		uxth	r2, r3
 835 0070 D7F82434 		ldr	r3, [r7, #1060]
 836 0074 9BB2     		uxth	r3, r3
 837 0076 D31A     		subs	r3, r2, r3
 838 0078 A7F82234 		strh	r3, [r7, #1058]	@ movhi
 215:cybtldr_api.c **** 
 216:cybtldr_api.c ****         err = CyBtldr_CreateSendDataCmd(&buf[offset], subBufSize, inBuf, &inSize, &outSize);
 839              		.loc 1 216 0
 840 007c 07F10803 		add	r3, r7, #8
 841 0080 1A68     		ldr	r2, [r3]
 842 0082 D7F82C34 		ldr	r3, [r7, #1068]
 843 0086 D018     		adds	r0, r2, r3
 844 0088 07F11C04 		add	r4, r7, #28
 845 008c 07F50872 		add	r2, r7, #544
 846 0090 B7F82214 		ldrh	r1, [r7, #1058]
 847 0094 07F11803 		add	r3, r7, #24
 848 0098 0093     		str	r3, [sp]
 849 009a 2346     		mov	r3, r4
 850 009c FFF7FEFF 		bl	CyBtldr_CreateSendDataCmd
 851 00a0 C7F82804 		str	r0, [r7, #1064]
 217:cybtldr_api.c ****         if (CYRET_SUCCESS == err)
 852              		.loc 1 217 0
 853 00a4 D7F82834 		ldr	r3, [r7, #1064]
 854 00a8 002B     		cmp	r3, #0
 855 00aa 0ED1     		bne	.L53
 218:cybtldr_api.c ****             err = CyBtldr_TransferData(inBuf, inSize, outBuf, outSize);
 856              		.loc 1 218 0
 857 00ac 07F11C03 		add	r3, r7, #28
 858 00b0 1B68     		ldr	r3, [r3]
 859 00b2 1946     		mov	r1, r3
 860 00b4 07F11803 		add	r3, r7, #24
 861 00b8 1B68     		ldr	r3, [r3]
 862 00ba 07F12002 		add	r2, r7, #32
 863 00be 07F50870 		add	r0, r7, #544
ARM GAS  C:\Users\HENRYK~1\AppData\Local\Temp\ccK7BKsh.s 			page 20


 864 00c2 FFF7FEFF 		bl	CyBtldr_TransferData
 865 00c6 C7F82804 		str	r0, [r7, #1064]
 866              	.L53:
 219:cybtldr_api.c ****         if (CYRET_SUCCESS == err)
 867              		.loc 1 219 0
 868 00ca D7F82834 		ldr	r3, [r7, #1064]
 869 00ce 002B     		cmp	r3, #0
 870 00d0 0BD1     		bne	.L54
 220:cybtldr_api.c ****             err = CyBtldr_ParseSendDataCmdResult(outBuf, outSize, &status);
 871              		.loc 1 220 0
 872 00d2 07F11803 		add	r3, r7, #24
 873 00d6 1968     		ldr	r1, [r3]
 874 00d8 07F11702 		add	r2, r7, #23
 875 00dc 07F12003 		add	r3, r7, #32
 876 00e0 1846     		mov	r0, r3
 877 00e2 FFF7FEFF 		bl	CyBtldr_ParseSendDataCmdResult
 878 00e6 C7F82804 		str	r0, [r7, #1064]
 879              	.L54:
 221:cybtldr_api.c ****         if (CYRET_SUCCESS != status)
 880              		.loc 1 221 0
 881 00ea 07F11703 		add	r3, r7, #23
 882 00ee 1B78     		ldrb	r3, [r3]	@ zero_extendqisi2
 883 00f0 002B     		cmp	r3, #0
 884 00f2 06D0     		beq	.L55
 222:cybtldr_api.c ****             err = status | CYRET_ERR_BTLDR_MASK;
 885              		.loc 1 222 0
 886 00f4 07F11703 		add	r3, r7, #23
 887 00f8 1B78     		ldrb	r3, [r3]	@ zero_extendqisi2
 888 00fa 43F48043 		orr	r3, r3, #16384
 889 00fe C7F82834 		str	r3, [r7, #1064]
 890              	.L55:
 223:cybtldr_api.c **** 
 224:cybtldr_api.c ****         offset += subBufSize;
 891              		.loc 1 224 0
 892 0102 B7F82234 		ldrh	r3, [r7, #1058]
 893 0106 D7F82C24 		ldr	r2, [r7, #1068]
 894 010a 1344     		add	r3, r3, r2
 895 010c C7F82C34 		str	r3, [r7, #1068]
 896              	.L52:
 212:cybtldr_api.c ****     {
 897              		.loc 1 212 0
 898 0110 D7F82834 		ldr	r3, [r7, #1064]
 899 0114 002B     		cmp	r3, #0
 900 0116 0CD1     		bne	.L56
 212:cybtldr_api.c ****     {
 901              		.loc 1 212 0 is_stmt 0 discriminator 1
 902 0118 BB1D     		adds	r3, r7, #6
 903 011a 1A88     		ldrh	r2, [r3]
 904 011c D7F82C34 		ldr	r3, [r7, #1068]
 905 0120 D21A     		subs	r2, r2, r3
 906 0122 D7F82434 		ldr	r3, [r7, #1060]
 907 0126 1A44     		add	r2, r2, r3
 908 0128 314B     		ldr	r3, .L62
 909 012a 1B68     		ldr	r3, [r3]
 910 012c 1B69     		ldr	r3, [r3, #16]
 911 012e 9A42     		cmp	r2, r3
 912 0130 9AD8     		bhi	.L57
ARM GAS  C:\Users\HENRYK~1\AppData\Local\Temp\ccK7BKsh.s 			page 21


 913              	.L56:
 225:cybtldr_api.c ****     }
 226:cybtldr_api.c **** 
 227:cybtldr_api.c ****     if (CYRET_SUCCESS == err)
 914              		.loc 1 227 0 is_stmt 1
 915 0132 D7F82834 		ldr	r3, [r7, #1064]
 916 0136 002B     		cmp	r3, #0
 917 0138 52D1     		bne	.L58
 228:cybtldr_api.c ****     {
 229:cybtldr_api.c ****         subBufSize = (unsigned short)(size - offset);
 918              		.loc 1 229 0
 919 013a D7F82C34 		ldr	r3, [r7, #1068]
 920 013e 9BB2     		uxth	r3, r3
 921 0140 BA1D     		adds	r2, r7, #6
 922 0142 1288     		ldrh	r2, [r2]	@ movhi
 923 0144 D31A     		subs	r3, r2, r3
 924 0146 A7F82234 		strh	r3, [r7, #1058]	@ movhi
 230:cybtldr_api.c **** 
 231:cybtldr_api.c ****         err = CyBtldr_CreateProgramRowCmd(arrayID, rowNum, &buf[offset], subBufSize, inBuf, &inSize
 925              		.loc 1 231 0
 926 014a 07F10803 		add	r3, r7, #8
 927 014e 1A68     		ldr	r2, [r3]
 928 0150 D7F82C34 		ldr	r3, [r7, #1068]
 929 0154 1A44     		add	r2, r2, r3
 930 0156 B7F82244 		ldrh	r4, [r7, #1058]
 931 015a 07F10C03 		add	r3, r7, #12
 932 015e 1988     		ldrh	r1, [r3]
 933 0160 07F10F03 		add	r3, r7, #15
 934 0164 1878     		ldrb	r0, [r3]	@ zero_extendqisi2
 935 0166 07F11803 		add	r3, r7, #24
 936 016a 0293     		str	r3, [sp, #8]
 937 016c 07F11C03 		add	r3, r7, #28
 938 0170 0193     		str	r3, [sp, #4]
 939 0172 07F50873 		add	r3, r7, #544
 940 0176 0093     		str	r3, [sp]
 941 0178 2346     		mov	r3, r4
 942 017a FFF7FEFF 		bl	CyBtldr_CreateProgramRowCmd
 943 017e C7F82804 		str	r0, [r7, #1064]
 232:cybtldr_api.c ****         if (CYRET_SUCCESS == err)
 944              		.loc 1 232 0
 945 0182 D7F82834 		ldr	r3, [r7, #1064]
 946 0186 002B     		cmp	r3, #0
 947 0188 0ED1     		bne	.L59
 233:cybtldr_api.c ****             err = CyBtldr_TransferData(inBuf, inSize, outBuf, outSize);
 948              		.loc 1 233 0
 949 018a 07F11C03 		add	r3, r7, #28
 950 018e 1B68     		ldr	r3, [r3]
 951 0190 1946     		mov	r1, r3
 952 0192 07F11803 		add	r3, r7, #24
 953 0196 1B68     		ldr	r3, [r3]
 954 0198 07F12002 		add	r2, r7, #32
 955 019c 07F50870 		add	r0, r7, #544
 956 01a0 FFF7FEFF 		bl	CyBtldr_TransferData
 957 01a4 C7F82804 		str	r0, [r7, #1064]
 958              	.L59:
 234:cybtldr_api.c ****         if (CYRET_SUCCESS == err)
 959              		.loc 1 234 0
ARM GAS  C:\Users\HENRYK~1\AppData\Local\Temp\ccK7BKsh.s 			page 22


 960 01a8 D7F82834 		ldr	r3, [r7, #1064]
 961 01ac 002B     		cmp	r3, #0
 962 01ae 0BD1     		bne	.L60
 235:cybtldr_api.c ****             err = CyBtldr_ParseProgramRowCmdResult(outBuf, outSize, &status);
 963              		.loc 1 235 0
 964 01b0 07F11803 		add	r3, r7, #24
 965 01b4 1968     		ldr	r1, [r3]
 966 01b6 07F11702 		add	r2, r7, #23
 967 01ba 07F12003 		add	r3, r7, #32
 968 01be 1846     		mov	r0, r3
 969 01c0 FFF7FEFF 		bl	CyBtldr_ParseProgramRowCmdResult
 970 01c4 C7F82804 		str	r0, [r7, #1064]
 971              	.L60:
 236:cybtldr_api.c ****         if (CYRET_SUCCESS != status)
 972              		.loc 1 236 0
 973 01c8 07F11703 		add	r3, r7, #23
 974 01cc 1B78     		ldrb	r3, [r3]	@ zero_extendqisi2
 975 01ce 002B     		cmp	r3, #0
 976 01d0 06D0     		beq	.L58
 237:cybtldr_api.c ****             err = status | CYRET_ERR_BTLDR_MASK;
 977              		.loc 1 237 0
 978 01d2 07F11703 		add	r3, r7, #23
 979 01d6 1B78     		ldrb	r3, [r3]	@ zero_extendqisi2
 980 01d8 43F48043 		orr	r3, r3, #16384
 981 01dc C7F82834 		str	r3, [r7, #1064]
 982              	.L58:
 238:cybtldr_api.c ****     }
 239:cybtldr_api.c **** 
 240:cybtldr_api.c ****     return err;
 983              		.loc 1 240 0
 984 01e0 D7F82834 		ldr	r3, [r7, #1064]
 241:cybtldr_api.c **** }
 985              		.loc 1 241 0
 986 01e4 1846     		mov	r0, r3
 987 01e6 07F23447 		addw	r7, r7, #1076
 988              		.cfi_def_cfa_offset 12
 989 01ea BD46     		mov	sp, r7
 990              		.cfi_def_cfa_register 13
 991              		@ sp needed
 992 01ec 90BD     		pop	{r4, r7, pc}
 993              	.L63:
 994 01ee 00BF     		.align	2
 995              	.L62:
 996 01f0 00000000 		.word	g_comm
 997              		.cfi_endproc
 998              	.LFE7:
 999              		.size	CyBtldr_ProgramRow, .-CyBtldr_ProgramRow
 1000              		.section	.text.CyBtldr_EraseRow,"ax",%progbits
 1001              		.align	2
 1002              		.global	CyBtldr_EraseRow
 1003              		.thumb
 1004              		.thumb_func
 1005              		.type	CyBtldr_EraseRow, %function
 1006              	CyBtldr_EraseRow:
 1007              	.LFB8:
 242:cybtldr_api.c **** 
 243:cybtldr_api.c **** int CyBtldr_EraseRow(unsigned char arrayID, unsigned short rowNum)
ARM GAS  C:\Users\HENRYK~1\AppData\Local\Temp\ccK7BKsh.s 			page 23


 244:cybtldr_api.c **** {
 1008              		.loc 1 244 0
 1009              		.cfi_startproc
 1010              		@ args = 0, pretend = 0, frame = 1048
 1011              		@ frame_needed = 1, uses_anonymous_args = 0
 1012 0000 90B5     		push	{r4, r7, lr}
 1013              		.cfi_def_cfa_offset 12
 1014              		.cfi_offset 4, -12
 1015              		.cfi_offset 7, -8
 1016              		.cfi_offset 14, -4
 1017 0002 ADF2244D 		subw	sp, sp, #1060
 1018              		.cfi_def_cfa_offset 1072
 1019 0006 02AF     		add	r7, sp, #8
 1020              		.cfi_def_cfa 7, 1064
 1021 0008 0246     		mov	r2, r0
 1022 000a FB1D     		adds	r3, r7, #7
 1023 000c 1A70     		strb	r2, [r3]
 1024 000e 3B1D     		adds	r3, r7, #4
 1025 0010 0A46     		mov	r2, r1	@ movhi
 1026 0012 1A80     		strh	r2, [r3]	@ movhi
 245:cybtldr_api.c ****     unsigned char inBuf[MAX_COMMAND_SIZE];
 246:cybtldr_api.c ****     unsigned char outBuf[MAX_COMMAND_SIZE];
 247:cybtldr_api.c ****     unsigned long inSize = 0;
 1027              		.loc 1 247 0
 1028 0014 07F11003 		add	r3, r7, #16
 1029 0018 0022     		movs	r2, #0
 1030 001a 1A60     		str	r2, [r3]
 248:cybtldr_api.c ****     unsigned long outSize = 0;
 1031              		.loc 1 248 0
 1032 001c 07F10C03 		add	r3, r7, #12
 1033 0020 0022     		movs	r2, #0
 1034 0022 1A60     		str	r2, [r3]
 249:cybtldr_api.c ****     unsigned char status = CYRET_SUCCESS;
 1035              		.loc 1 249 0
 1036 0024 07F10B03 		add	r3, r7, #11
 1037 0028 0022     		movs	r2, #0
 1038 002a 1A70     		strb	r2, [r3]
 250:cybtldr_api.c ****     int err = CYRET_SUCCESS;
 1039              		.loc 1 250 0
 1040 002c 0023     		movs	r3, #0
 1041 002e C7F81434 		str	r3, [r7, #1044]
 251:cybtldr_api.c ****     
 252:cybtldr_api.c ****     if (arrayID < MAX_FLASH_ARRAYS)
 1042              		.loc 1 252 0
 1043 0032 FB1D     		adds	r3, r7, #7
 1044 0034 1B78     		ldrb	r3, [r3]	@ zero_extendqisi2
 1045 0036 3F2B     		cmp	r3, #63
 1046 0038 09D8     		bhi	.L65
 253:cybtldr_api.c ****         err = CyBtldr_ValidateRow(arrayID, rowNum);
 1047              		.loc 1 253 0
 1048 003a 3B1D     		adds	r3, r7, #4
 1049 003c 1A88     		ldrh	r2, [r3]
 1050 003e FB1D     		adds	r3, r7, #7
 1051 0040 1B78     		ldrb	r3, [r3]	@ zero_extendqisi2
 1052 0042 1146     		mov	r1, r2
 1053 0044 1846     		mov	r0, r3
 1054 0046 FFF7FEFF 		bl	CyBtldr_ValidateRow
ARM GAS  C:\Users\HENRYK~1\AppData\Local\Temp\ccK7BKsh.s 			page 24


 1055 004a C7F81404 		str	r0, [r7, #1044]
 1056              	.L65:
 254:cybtldr_api.c ****     if (CYRET_SUCCESS == err)
 1057              		.loc 1 254 0
 1058 004e D7F81434 		ldr	r3, [r7, #1044]
 1059 0052 002B     		cmp	r3, #0
 1060 0054 0FD1     		bne	.L66
 255:cybtldr_api.c ****         err = CyBtldr_CreateEraseRowCmd(arrayID, rowNum, inBuf, &inSize, &outSize);
 1061              		.loc 1 255 0
 1062 0056 07F11004 		add	r4, r7, #16
 1063 005a 07F50572 		add	r2, r7, #532
 1064 005e 3B1D     		adds	r3, r7, #4
 1065 0060 1988     		ldrh	r1, [r3]
 1066 0062 FB1D     		adds	r3, r7, #7
 1067 0064 1878     		ldrb	r0, [r3]	@ zero_extendqisi2
 1068 0066 07F10C03 		add	r3, r7, #12
 1069 006a 0093     		str	r3, [sp]
 1070 006c 2346     		mov	r3, r4
 1071 006e FFF7FEFF 		bl	CyBtldr_CreateEraseRowCmd
 1072 0072 C7F81404 		str	r0, [r7, #1044]
 1073              	.L66:
 256:cybtldr_api.c ****     if (CYRET_SUCCESS == err)
 1074              		.loc 1 256 0
 1075 0076 D7F81434 		ldr	r3, [r7, #1044]
 1076 007a 002B     		cmp	r3, #0
 1077 007c 0ED1     		bne	.L67
 257:cybtldr_api.c ****         err = CyBtldr_TransferData(inBuf, inSize, outBuf, outSize);
 1078              		.loc 1 257 0
 1079 007e 07F11003 		add	r3, r7, #16
 1080 0082 1B68     		ldr	r3, [r3]
 1081 0084 1946     		mov	r1, r3
 1082 0086 07F10C03 		add	r3, r7, #12
 1083 008a 1B68     		ldr	r3, [r3]
 1084 008c 07F11402 		add	r2, r7, #20
 1085 0090 07F50570 		add	r0, r7, #532
 1086 0094 FFF7FEFF 		bl	CyBtldr_TransferData
 1087 0098 C7F81404 		str	r0, [r7, #1044]
 1088              	.L67:
 258:cybtldr_api.c ****     if (CYRET_SUCCESS == err)
 1089              		.loc 1 258 0
 1090 009c D7F81434 		ldr	r3, [r7, #1044]
 1091 00a0 002B     		cmp	r3, #0
 1092 00a2 0BD1     		bne	.L68
 259:cybtldr_api.c ****         err = CyBtldr_ParseEraseRowCmdResult(outBuf, outSize, &status);
 1093              		.loc 1 259 0
 1094 00a4 07F10C03 		add	r3, r7, #12
 1095 00a8 1968     		ldr	r1, [r3]
 1096 00aa 07F10B02 		add	r2, r7, #11
 1097 00ae 07F11403 		add	r3, r7, #20
 1098 00b2 1846     		mov	r0, r3
 1099 00b4 FFF7FEFF 		bl	CyBtldr_ParseEraseRowCmdResult
 1100 00b8 C7F81404 		str	r0, [r7, #1044]
 1101              	.L68:
 260:cybtldr_api.c ****     if (CYRET_SUCCESS != status)
 1102              		.loc 1 260 0
 1103 00bc 07F10B03 		add	r3, r7, #11
 1104 00c0 1B78     		ldrb	r3, [r3]	@ zero_extendqisi2
ARM GAS  C:\Users\HENRYK~1\AppData\Local\Temp\ccK7BKsh.s 			page 25


 1105 00c2 002B     		cmp	r3, #0
 1106 00c4 06D0     		beq	.L69
 261:cybtldr_api.c ****         err = status | CYRET_ERR_BTLDR_MASK;
 1107              		.loc 1 261 0
 1108 00c6 07F10B03 		add	r3, r7, #11
 1109 00ca 1B78     		ldrb	r3, [r3]	@ zero_extendqisi2
 1110 00cc 43F48043 		orr	r3, r3, #16384
 1111 00d0 C7F81434 		str	r3, [r7, #1044]
 1112              	.L69:
 262:cybtldr_api.c **** 
 263:cybtldr_api.c ****     return err;
 1113              		.loc 1 263 0
 1114 00d4 D7F81434 		ldr	r3, [r7, #1044]
 264:cybtldr_api.c **** }
 1115              		.loc 1 264 0
 1116 00d8 1846     		mov	r0, r3
 1117 00da 07F21C47 		addw	r7, r7, #1052
 1118              		.cfi_def_cfa_offset 12
 1119 00de BD46     		mov	sp, r7
 1120              		.cfi_def_cfa_register 13
 1121              		@ sp needed
 1122 00e0 90BD     		pop	{r4, r7, pc}
 1123              		.cfi_endproc
 1124              	.LFE8:
 1125              		.size	CyBtldr_EraseRow, .-CyBtldr_EraseRow
 1126 00e2 00BF     		.section	.text.CyBtldr_VerifyRow,"ax",%progbits
 1127              		.align	2
 1128              		.global	CyBtldr_VerifyRow
 1129              		.thumb
 1130              		.thumb_func
 1131              		.type	CyBtldr_VerifyRow, %function
 1132              	CyBtldr_VerifyRow:
 1133              	.LFB9:
 265:cybtldr_api.c **** 
 266:cybtldr_api.c **** int CyBtldr_VerifyRow(unsigned char arrayID, unsigned short rowNum, unsigned char checksum)
 267:cybtldr_api.c **** {
 1134              		.loc 1 267 0
 1135              		.cfi_startproc
 1136              		@ args = 0, pretend = 0, frame = 1048
 1137              		@ frame_needed = 1, uses_anonymous_args = 0
 1138 0000 90B5     		push	{r4, r7, lr}
 1139              		.cfi_def_cfa_offset 12
 1140              		.cfi_offset 4, -12
 1141              		.cfi_offset 7, -8
 1142              		.cfi_offset 14, -4
 1143 0002 ADF2244D 		subw	sp, sp, #1060
 1144              		.cfi_def_cfa_offset 1072
 1145 0006 02AF     		add	r7, sp, #8
 1146              		.cfi_def_cfa 7, 1064
 1147 0008 0446     		mov	r4, r0
 1148 000a 0846     		mov	r0, r1
 1149 000c 1146     		mov	r1, r2
 1150 000e FB1D     		adds	r3, r7, #7
 1151 0010 2246     		mov	r2, r4
 1152 0012 1A70     		strb	r2, [r3]
 1153 0014 3B1D     		adds	r3, r7, #4
 1154 0016 0246     		mov	r2, r0	@ movhi
ARM GAS  C:\Users\HENRYK~1\AppData\Local\Temp\ccK7BKsh.s 			page 26


 1155 0018 1A80     		strh	r2, [r3]	@ movhi
 1156 001a BB1D     		adds	r3, r7, #6
 1157 001c 0A46     		mov	r2, r1
 1158 001e 1A70     		strb	r2, [r3]
 268:cybtldr_api.c ****     unsigned char inBuf[MAX_COMMAND_SIZE];
 269:cybtldr_api.c ****     unsigned char outBuf[MAX_COMMAND_SIZE];
 270:cybtldr_api.c ****     unsigned long inSize = 0;
 1159              		.loc 1 270 0
 1160 0020 07F11003 		add	r3, r7, #16
 1161 0024 0022     		movs	r2, #0
 1162 0026 1A60     		str	r2, [r3]
 271:cybtldr_api.c ****     unsigned long outSize = 0;
 1163              		.loc 1 271 0
 1164 0028 07F10C03 		add	r3, r7, #12
 1165 002c 0022     		movs	r2, #0
 1166 002e 1A60     		str	r2, [r3]
 272:cybtldr_api.c ****     unsigned char rowChecksum = 0;
 1167              		.loc 1 272 0
 1168 0030 07F10B03 		add	r3, r7, #11
 1169 0034 0022     		movs	r2, #0
 1170 0036 1A70     		strb	r2, [r3]
 273:cybtldr_api.c ****     unsigned char status = CYRET_SUCCESS;
 1171              		.loc 1 273 0
 1172 0038 07F10A03 		add	r3, r7, #10
 1173 003c 0022     		movs	r2, #0
 1174 003e 1A70     		strb	r2, [r3]
 274:cybtldr_api.c ****     int err = CYRET_SUCCESS;
 1175              		.loc 1 274 0
 1176 0040 0023     		movs	r3, #0
 1177 0042 C7F81434 		str	r3, [r7, #1044]
 275:cybtldr_api.c ****     
 276:cybtldr_api.c ****     if (arrayID < MAX_FLASH_ARRAYS)
 1178              		.loc 1 276 0
 1179 0046 FB1D     		adds	r3, r7, #7
 1180 0048 1B78     		ldrb	r3, [r3]	@ zero_extendqisi2
 1181 004a 3F2B     		cmp	r3, #63
 1182 004c 09D8     		bhi	.L72
 277:cybtldr_api.c ****         err = CyBtldr_ValidateRow(arrayID, rowNum);
 1183              		.loc 1 277 0
 1184 004e 3B1D     		adds	r3, r7, #4
 1185 0050 1A88     		ldrh	r2, [r3]
 1186 0052 FB1D     		adds	r3, r7, #7
 1187 0054 1B78     		ldrb	r3, [r3]	@ zero_extendqisi2
 1188 0056 1146     		mov	r1, r2
 1189 0058 1846     		mov	r0, r3
 1190 005a FFF7FEFF 		bl	CyBtldr_ValidateRow
 1191 005e C7F81404 		str	r0, [r7, #1044]
 1192              	.L72:
 278:cybtldr_api.c ****     if (CYRET_SUCCESS == err)
 1193              		.loc 1 278 0
 1194 0062 D7F81434 		ldr	r3, [r7, #1044]
 1195 0066 002B     		cmp	r3, #0
 1196 0068 0FD1     		bne	.L73
 279:cybtldr_api.c ****         err = CyBtldr_CreateVerifyRowCmd(arrayID, rowNum, inBuf, &inSize, &outSize);
 1197              		.loc 1 279 0
 1198 006a 07F11004 		add	r4, r7, #16
 1199 006e 07F50572 		add	r2, r7, #532
ARM GAS  C:\Users\HENRYK~1\AppData\Local\Temp\ccK7BKsh.s 			page 27


 1200 0072 3B1D     		adds	r3, r7, #4
 1201 0074 1988     		ldrh	r1, [r3]
 1202 0076 FB1D     		adds	r3, r7, #7
 1203 0078 1878     		ldrb	r0, [r3]	@ zero_extendqisi2
 1204 007a 07F10C03 		add	r3, r7, #12
 1205 007e 0093     		str	r3, [sp]
 1206 0080 2346     		mov	r3, r4
 1207 0082 FFF7FEFF 		bl	CyBtldr_CreateVerifyRowCmd
 1208 0086 C7F81404 		str	r0, [r7, #1044]
 1209              	.L73:
 280:cybtldr_api.c ****     if (CYRET_SUCCESS == err)
 1210              		.loc 1 280 0
 1211 008a D7F81434 		ldr	r3, [r7, #1044]
 1212 008e 002B     		cmp	r3, #0
 1213 0090 0ED1     		bne	.L74
 281:cybtldr_api.c ****         err = CyBtldr_TransferData(inBuf, inSize, outBuf, outSize);
 1214              		.loc 1 281 0
 1215 0092 07F11003 		add	r3, r7, #16
 1216 0096 1B68     		ldr	r3, [r3]
 1217 0098 1946     		mov	r1, r3
 1218 009a 07F10C03 		add	r3, r7, #12
 1219 009e 1B68     		ldr	r3, [r3]
 1220 00a0 07F11402 		add	r2, r7, #20
 1221 00a4 07F50570 		add	r0, r7, #532
 1222 00a8 FFF7FEFF 		bl	CyBtldr_TransferData
 1223 00ac C7F81404 		str	r0, [r7, #1044]
 1224              	.L74:
 282:cybtldr_api.c ****     if (CYRET_SUCCESS == err)
 1225              		.loc 1 282 0
 1226 00b0 D7F81434 		ldr	r3, [r7, #1044]
 1227 00b4 002B     		cmp	r3, #0
 1228 00b6 0CD1     		bne	.L75
 283:cybtldr_api.c ****         err = CyBtldr_ParseVerifyRowCmdResult(outBuf, outSize, &rowChecksum, &status);
 1229              		.loc 1 283 0
 1230 00b8 07F10C03 		add	r3, r7, #12
 1231 00bc 1968     		ldr	r1, [r3]
 1232 00be 07F10A03 		add	r3, r7, #10
 1233 00c2 07F10B02 		add	r2, r7, #11
 1234 00c6 07F11400 		add	r0, r7, #20
 1235 00ca FFF7FEFF 		bl	CyBtldr_ParseVerifyRowCmdResult
 1236 00ce C7F81404 		str	r0, [r7, #1044]
 1237              	.L75:
 284:cybtldr_api.c ****     if (CYRET_SUCCESS != status)
 1238              		.loc 1 284 0
 1239 00d2 07F10A03 		add	r3, r7, #10
 1240 00d6 1B78     		ldrb	r3, [r3]	@ zero_extendqisi2
 1241 00d8 002B     		cmp	r3, #0
 1242 00da 06D0     		beq	.L76
 285:cybtldr_api.c ****         err = status | CYRET_ERR_BTLDR_MASK;
 1243              		.loc 1 285 0
 1244 00dc 07F10A03 		add	r3, r7, #10
 1245 00e0 1B78     		ldrb	r3, [r3]	@ zero_extendqisi2
 1246 00e2 43F48043 		orr	r3, r3, #16384
 1247 00e6 C7F81434 		str	r3, [r7, #1044]
 1248              	.L76:
 286:cybtldr_api.c ****     if ((CYRET_SUCCESS == err) && (rowChecksum != checksum))
 1249              		.loc 1 286 0
ARM GAS  C:\Users\HENRYK~1\AppData\Local\Temp\ccK7BKsh.s 			page 28


 1250 00ea D7F81434 		ldr	r3, [r7, #1044]
 1251 00ee 002B     		cmp	r3, #0
 1252 00f0 09D1     		bne	.L77
 1253              		.loc 1 286 0 is_stmt 0 discriminator 1
 1254 00f2 07F10B03 		add	r3, r7, #11
 1255 00f6 1B78     		ldrb	r3, [r3]	@ zero_extendqisi2
 1256 00f8 BA1D     		adds	r2, r7, #6
 1257 00fa 1278     		ldrb	r2, [r2]	@ zero_extendqisi2
 1258 00fc 9A42     		cmp	r2, r3
 1259 00fe 02D0     		beq	.L77
 287:cybtldr_api.c ****         err = CYRET_ERR_CHECKSUM;
 1260              		.loc 1 287 0 is_stmt 1
 1261 0100 0823     		movs	r3, #8
 1262 0102 C7F81434 		str	r3, [r7, #1044]
 1263              	.L77:
 288:cybtldr_api.c **** 
 289:cybtldr_api.c ****     return err;
 1264              		.loc 1 289 0
 1265 0106 D7F81434 		ldr	r3, [r7, #1044]
 290:cybtldr_api.c **** }
 1266              		.loc 1 290 0
 1267 010a 1846     		mov	r0, r3
 1268 010c 07F21C47 		addw	r7, r7, #1052
 1269              		.cfi_def_cfa_offset 12
 1270 0110 BD46     		mov	sp, r7
 1271              		.cfi_def_cfa_register 13
 1272              		@ sp needed
 1273 0112 90BD     		pop	{r4, r7, pc}
 1274              		.cfi_endproc
 1275              	.LFE9:
 1276              		.size	CyBtldr_VerifyRow, .-CyBtldr_VerifyRow
 1277              		.section	.text.CyBtldr_VerifyApplication,"ax",%progbits
 1278              		.align	2
 1279              		.global	CyBtldr_VerifyApplication
 1280              		.thumb
 1281              		.thumb_func
 1282              		.type	CyBtldr_VerifyApplication, %function
 1283              	CyBtldr_VerifyApplication:
 1284              	.LFB10:
 291:cybtldr_api.c **** 
 292:cybtldr_api.c **** int CyBtldr_VerifyApplication(void)
 293:cybtldr_api.c **** {
 1285              		.loc 1 293 0
 1286              		.cfi_startproc
 1287              		@ args = 0, pretend = 0, frame = 1040
 1288              		@ frame_needed = 1, uses_anonymous_args = 0
 1289 0000 80B5     		push	{r7, lr}
 1290              		.cfi_def_cfa_offset 8
 1291              		.cfi_offset 7, -8
 1292              		.cfi_offset 14, -4
 1293 0002 ADF5826D 		sub	sp, sp, #1040
 1294              		.cfi_def_cfa_offset 1048
 1295 0006 00AF     		add	r7, sp, #0
 1296              		.cfi_def_cfa_register 7
 294:cybtldr_api.c ****     unsigned char inBuf[MAX_COMMAND_SIZE];
 295:cybtldr_api.c ****     unsigned char outBuf[MAX_COMMAND_SIZE];
 296:cybtldr_api.c ****     unsigned long inSize = 0;
ARM GAS  C:\Users\HENRYK~1\AppData\Local\Temp\ccK7BKsh.s 			page 29


 1297              		.loc 1 296 0
 1298 0008 07F10803 		add	r3, r7, #8
 1299 000c 0022     		movs	r2, #0
 1300 000e 1A60     		str	r2, [r3]
 297:cybtldr_api.c ****     unsigned long outSize = 0;
 1301              		.loc 1 297 0
 1302 0010 3B1D     		adds	r3, r7, #4
 1303 0012 0022     		movs	r2, #0
 1304 0014 1A60     		str	r2, [r3]
 298:cybtldr_api.c ****     unsigned char checksumValid = 0;
 1305              		.loc 1 298 0
 1306 0016 FB1C     		adds	r3, r7, #3
 1307 0018 0022     		movs	r2, #0
 1308 001a 1A70     		strb	r2, [r3]
 299:cybtldr_api.c ****     unsigned char status = CYRET_SUCCESS;
 1309              		.loc 1 299 0
 1310 001c BB1C     		adds	r3, r7, #2
 1311 001e 0022     		movs	r2, #0
 1312 0020 1A70     		strb	r2, [r3]
 300:cybtldr_api.c **** 
 301:cybtldr_api.c ****     int err = CyBtldr_CreateVerifyChecksumCmd(inBuf, &inSize, &outSize);
 1313              		.loc 1 301 0
 1314 0022 3A1D     		adds	r2, r7, #4
 1315 0024 07F10801 		add	r1, r7, #8
 1316 0028 07F50373 		add	r3, r7, #524
 1317 002c 1846     		mov	r0, r3
 1318 002e FFF7FEFF 		bl	CyBtldr_CreateVerifyChecksumCmd
 1319 0032 C7F80C04 		str	r0, [r7, #1036]
 302:cybtldr_api.c ****     if (CYRET_SUCCESS == err)
 1320              		.loc 1 302 0
 1321 0036 D7F80C34 		ldr	r3, [r7, #1036]
 1322 003a 002B     		cmp	r3, #0
 1323 003c 0DD1     		bne	.L80
 303:cybtldr_api.c ****         err = CyBtldr_TransferData(inBuf, inSize, outBuf, outSize);
 1324              		.loc 1 303 0
 1325 003e 07F10803 		add	r3, r7, #8
 1326 0042 1B68     		ldr	r3, [r3]
 1327 0044 1946     		mov	r1, r3
 1328 0046 3B1D     		adds	r3, r7, #4
 1329 0048 1B68     		ldr	r3, [r3]
 1330 004a 07F10C02 		add	r2, r7, #12
 1331 004e 07F50370 		add	r0, r7, #524
 1332 0052 FFF7FEFF 		bl	CyBtldr_TransferData
 1333 0056 C7F80C04 		str	r0, [r7, #1036]
 1334              	.L80:
 304:cybtldr_api.c ****     if (CYRET_SUCCESS == err)
 1335              		.loc 1 304 0
 1336 005a D7F80C34 		ldr	r3, [r7, #1036]
 1337 005e 002B     		cmp	r3, #0
 1338 0060 09D1     		bne	.L81
 305:cybtldr_api.c ****         err = CyBtldr_ParseVerifyChecksumCmdResult(outBuf, outSize, &checksumValid, &status);
 1339              		.loc 1 305 0
 1340 0062 3B1D     		adds	r3, r7, #4
 1341 0064 1968     		ldr	r1, [r3]
 1342 0066 BB1C     		adds	r3, r7, #2
 1343 0068 FA1C     		adds	r2, r7, #3
 1344 006a 07F10C00 		add	r0, r7, #12
ARM GAS  C:\Users\HENRYK~1\AppData\Local\Temp\ccK7BKsh.s 			page 30


 1345 006e FFF7FEFF 		bl	CyBtldr_ParseVerifyChecksumCmdResult
 1346 0072 C7F80C04 		str	r0, [r7, #1036]
 1347              	.L81:
 306:cybtldr_api.c ****     if (CYRET_SUCCESS != status)
 1348              		.loc 1 306 0
 1349 0076 BB1C     		adds	r3, r7, #2
 1350 0078 1B78     		ldrb	r3, [r3]	@ zero_extendqisi2
 1351 007a 002B     		cmp	r3, #0
 1352 007c 05D0     		beq	.L82
 307:cybtldr_api.c ****         err = status | CYRET_ERR_BTLDR_MASK;
 1353              		.loc 1 307 0
 1354 007e BB1C     		adds	r3, r7, #2
 1355 0080 1B78     		ldrb	r3, [r3]	@ zero_extendqisi2
 1356 0082 43F48043 		orr	r3, r3, #16384
 1357 0086 C7F80C34 		str	r3, [r7, #1036]
 1358              	.L82:
 308:cybtldr_api.c ****     if ((CYRET_SUCCESS == err) && (!checksumValid))
 1359              		.loc 1 308 0
 1360 008a D7F80C34 		ldr	r3, [r7, #1036]
 1361 008e 002B     		cmp	r3, #0
 1362 0090 06D1     		bne	.L83
 1363              		.loc 1 308 0 is_stmt 0 discriminator 1
 1364 0092 FB1C     		adds	r3, r7, #3
 1365 0094 1B78     		ldrb	r3, [r3]	@ zero_extendqisi2
 1366 0096 002B     		cmp	r3, #0
 1367 0098 02D1     		bne	.L83
 309:cybtldr_api.c ****         err = CYRET_ERR_CHECKSUM;
 1368              		.loc 1 309 0 is_stmt 1
 1369 009a 0823     		movs	r3, #8
 1370 009c C7F80C34 		str	r3, [r7, #1036]
 1371              	.L83:
 310:cybtldr_api.c **** 
 311:cybtldr_api.c ****     return err;
 1372              		.loc 1 311 0
 1373 00a0 D7F80C34 		ldr	r3, [r7, #1036]
 312:cybtldr_api.c **** }
 1374              		.loc 1 312 0
 1375 00a4 1846     		mov	r0, r3
 1376 00a6 07F58267 		add	r7, r7, #1040
 1377              		.cfi_def_cfa_offset 8
 1378 00aa BD46     		mov	sp, r7
 1379              		.cfi_def_cfa_register 13
 1380              		@ sp needed
 1381 00ac 80BD     		pop	{r7, pc}
 1382              		.cfi_endproc
 1383              	.LFE10:
 1384              		.size	CyBtldr_VerifyApplication, .-CyBtldr_VerifyApplication
 1385 00ae 00BF     		.text
 1386              	.Letext0:
 1387              		.file 2 "cybtldr_api.h"