ARM GAS  C:\Users\HENRYK~1\AppData\Local\Temp\ccX4hDQ1.s 			page 1


   1              		.syntax unified
   2              		.cpu cortex-m3
   3              		.fpu softvfp
   4              		.eabi_attribute 20, 1
   5              		.eabi_attribute 21, 1
   6              		.eabi_attribute 23, 3
   7              		.eabi_attribute 24, 1
   8              		.eabi_attribute 25, 1
   9              		.eabi_attribute 26, 1
  10              		.eabi_attribute 30, 6
  11              		.eabi_attribute 34, 1
  12              		.eabi_attribute 18, 4
  13              		.thumb
  14              		.syntax unified
  15              		.file	"main.c"
  16              		.text
  17              	.Ltext0:
  18              		.cfi_sections	.debug_frame
  19              		.global	blinkStringImage
  20              		.section	.rodata
  21              		.align	2
  22              	.LC0:
  23 0000 32453136 		.ascii	"2E1610690000\000"
  23      31303639 
  23      30303030 
  23      00
  24 000d 000000   		.align	2
  25              	.LC1:
  26 0010 3A303030 		.ascii	":00002901200080002011290000192C0000192C000080B500AF"
  26      30323930 
  26      31323030 
  26      30383030 
  26      30323031 
  27 0043 30304630 		.ascii	"00F08AF910B5054C237833B9044B13B10448AFF300800123237"
  27      38414639 
  27      31304235 
  27      30353443 
  27      32333738 
  28 0076 30313042 		.ascii	"010BD4081FF1F00000000782E0000084B10B51BB108490848AF"
  28      44343038 
  28      31464631 
  28      46303030 
  28      30303030 
  29 00a9 46333030 		.ascii	"F300800848036803B910BD074B002BFBD0BDE81040184700BF0"
  29      38303038 
  29      34383033 
  29      36383033 
  29      42393130 
  30 00dc 30303030 		.ascii	"00000004481FF1F782E0000C880FF1F0000000080B582B000AF"
  30      30303034 
  30      34383146 
  30      46314637 
  30      38324530 
  31 010f 34464634 		.ascii	"4FF4FA733B60012000F0E7F900237B6005E0012000F0FFF97B6"
  31      46413733 
  31      33423630 
  31      30313230 
ARM GAS  C:\Users\HENRYK~1\AppData\Local\Temp\ccX4hDQ1.s 			page 2


  31      30304630 
  32 0142 38303133 		.ascii	"801337B607A683B689A42F5DB002000F0D7F93B68184600F0F1"
  32      33374236 
  32      30374136 
  32      38334236 
  32      38394134 
  33 0175 46394537 		.ascii	"F9E7E780B582B000AF786039603A680021786800F051FA00BF0"
  33      45373830 
  33      42353832 
  33      42303030 
  33      41463738 
  34 01a8 38333742 		.ascii	"837BD4680BD80B584B000AFF860B9607A607A68B968F86800F0"
  34      44343638 
  34      30424438 
  34      30423538 
  34      34423030 
  35 01db 33374641 		.ascii	"37FA00BF1037BD4680BD00BF80B483B000AF0346FB71FEE780B"
  35      30304246 
  35      31303337 
  35      42443436 
  35      38304244 
  36 020e 35383242 		.ascii	"582B000AF2E4B00030300000000000070700000000000010014"
  36      30303041 
  36      46324534 
  36      42303030 
  36      33303330 
  37 0241 30313030 		.ascii	"01000000000000000000000000EB\000"
  37      30303030 
  37      30303030 
  37      30303030 
  37      30303030 
  38 025e 0000     		.align	2
  39              	.LC2:
  40 0260 3A303030 		.ascii	":00002A012003F190431033042219462C48FFF7DEFF2B4B0222"
  40      30324130 
  40      31323030 
  40      33463139 
  40      30343331 
  41 0293 31413730 		.ascii	"1A704FF0402308221A70294B03221A70284B294A1278D2B21A7"
  41      34464630 
  41      34303233 
  41      30383232 
  41      31413730 
  42 02c6 30323834 		.ascii	"0284B08221A80274B41F251221A800023FB7019237B6014E0FB"
  42      42303832 
  42      32314138 
  42      30323734 
  42      42343146 
  43 02f9 37383542 		.ascii	"785B00DAB2224B1B78DBB203F00103DBB21343DBB203F00303F"
  43      30304441 
  43      42323232 
  43      34423142 
  43      37384442 
  44 032c 42373034 		.ascii	"B704FF4F07000F0B7F97B68013B7B607B68002B02D0FB78032B"
  44      46463446 
  44      30373030 
  44      30463042 
ARM GAS  C:\Users\HENRYK~1\AppData\Local\Temp\ccX4hDQ1.s 			page 3


  44      37463937 
  45 035f 45344431 		.ascii	"E4D17B68002B02D10320FFF7B2FF144B4FF480721A80124B072"
  45      37423638 
  45      30303242 
  45      30324431 
  45      30333230 
  46 0392 32314137 		.ascii	"21A70124B00221A70114B48221A700E4B00221A700F4B02221A"
  46      30313234 
  46      42303032 
  46      32314137 
  46      30313134 
  47 03c5 37303030 		.ascii	"7000BF0837BD4680BD00BF20050000004100400043004000420"
  47      42463038 
  47      33374244 
  47      34363830 
  47      42443030 
  48 03f8 30343041 		.ascii	"040A14600400801004922420040204200402542004004400040"
  48      31343630 
  48      30343030 
  48      38303130 
  48      30343932 
  49 042b 30363430 		.ascii	"06400040084000400140004080B483B000AF0B4B1B78FB710A4"
  49      30303430 
  49      30383430 
  49      30303430 
  49      30313430 
  50 045e 41464237 		.ascii	"AFB7903F0070300000000000000000000000000000000000000"
  50      39303346 
  50      30303730 
  50      33303030 
  50      30303030 
  51 0491 30303030 		.ascii	"000000000000000000000000007D\000"
  51      30303030 
  51      30303030 
  51      30303030 
  51      30303030 
  52 04ae 0000     		.align	2
  53              	.LC3:
  54 04b0 3A303030 		.ascii	":00002B0120DBB21370084AFB791B09DBB21370074B44221A70"
  54      30324230 
  54      31323044 
  54      42423231 
  54      33373030 
  55 04e3 30304246 		.ascii	"00BF0C37BD4680BC704700BFCF0100496E5800406F580040765"
  55      30433337 
  55      42443436 
  55      38304243 
  55      37303437 
  56 0516 38303034 		.ascii	"8004080B582B000AF72B60023FB7113E0FA7913465B0013445B"
  56      30383042 
  56      35383242 
  56      30303041 
  56      46373242 
  57 0549 30303238 		.ascii	"00284A13443B603B681A683B689B889BB219461046FFF728FFF"
  57      34413133 
  57      34343342 
  57      36303342 
ARM GAS  C:\Users\HENRYK~1\AppData\Local\Temp\ccX4hDQ1.s 			page 4


  57      36383141 
  58 057c 42373930 		.ascii	"B790133FB71FB79082BE8D9204A204B1B78DBB243F00203DBB2"
  58      31333346 
  58      42373146 
  58      42373930 
  58      38324245 
  59 05af 31333730 		.ascii	"13701D4A1D4B1B78DBB243F00203DBB213701A4B03F19043082"
  59      31443441 
  59      31443442 
  59      31423738 
  59      44424232 
  60 05e2 32313934 		.ascii	"219461948FFF718FF164B03F190430833082219461548FFF70F"
  60      36313934 
  60      38464646 
  60      37313846 
  60      46313634 
  61 0615 46463135 		.ascii	"FF154A144B1B78DBB243F00803DBB21370124B61221A70FFF71"
  61      34413134 
  61      34423142 
  61      37384442 
  61      42323433 
  62 0648 38464630 		.ascii	"8FF0F4B81221A700F4B01221A70FFF78AFF0E220D490D48FFF7"
  62      46344238 
  62      31323231 
  62      41373030 
  62      46344230 
  63 067b 46354645 		.ascii	"F5FE00BF0837BD4680BD00BF7C2E00000350014013500140200"
  63      30304246 
  63      30383337 
  63      42443436 
  63      38304244 
  64 06ae 35303030 		.ascii	"500001251004000000000000000000000000000000000000000"
  64      30313235 
  64      31303034 
  64      30303030 
  64      30303030 
  65 06e1 30303030 		.ascii	"00000000000000000000000000FB\000"
  65      30303030 
  65      30303030 
  65      30303030 
  65      30303030 
  66 06fe 0000     		.align	2
  67              	.LC4:
  68 0700 3A303030 		.ascii	":00002C012022510040224300400048004004000840A0430040"
  68      30324330 
  68      31323032 
  68      32353130 
  68      30343032 
  69 0733 42303433 		.ascii	"B043004080B500AF00F0ECF803461B680C2B00D1FEE7FEE780B"
  69      30303430 
  69      38304235 
  69      30304146 
  69      30304630 
  70 0766 35383642 		.ascii	"586B000AF224B7B61224B3B61204B7B6135E03B691B68FB603B"
  70      30303041 
  70      46323234 
  70      42374236 
ARM GAS  C:\Users\HENRYK~1\AppData\Local\Temp\ccX4hDQ1.s 			page 5


  70      31323234 
  71 0799 36393542 		.ascii	"695B68BB603B699B683B6000237B600CE0FB681A68BB681A60B"
  71      36384242 
  71      36303342 
  71      36393942 
  71      36383342 
  72 07cc 42363830 		.ascii	"B680433BB60FB680433FB607B6804337B607A683B689A42EED1"
  72      34333342 
  72      42363046 
  72      42363830 
  72      34333346 
  73 07ff 33423639 		.ascii	"3B69DB683B6000237B6008E0BB6800221A60BB680433BB607B6"
  73      44423638 
  73      33423630 
  73      30303233 
  73      37423630 
  74 0832 38303433 		.ascii	"804337B607A683B689A42F2D13B6910333B617B69013B7B617B"
  74      33374236 
  74      30374136 
  74      38334236 
  74      38394134 
  75 0865 36393030 		.ascii	"69002BC6D100F0A7F8FFF75DFEFEE701000000D82E000080B58"
  75      32424336 
  75      44313030 
  75      46304137 
  75      46384646 
  76 0898 32423030 		.ascii	"2B000AF184B184A1A60184A184B1B6843F40073136000237B60"
  76      30414631 
  76      38344231 
  76      38344131 
  76      41363031 
  77 08cb 30464530 		.ascii	"0FE07B68032B04D8134A7B6852F8233000E0124B12497A6841F"
  77      37423638 
  77      30333242 
  77      30344438 
  77      31333441 
  78 08fe 38323233 		.ascii	"822307B68013300000000000000000000000000000000000000"
  78      30374236 
  78      38303133 
  78      33303030 
  78      30303030 
  79 0931 30303030 		.ascii	"00000000000000000000000000AF\000"
  79      30303030 
  79      30303030 
  79      30303030 
  79      30303030 
  80 094e 0000     		.align	2
  81              	.LC5:
  82 0950 3A303030 		.ascii	":00002D01207B607B682F2BECD90E4B1B78DAB20E4B1A700E4B"
  82      30324430 
  82      31323037 
  82      42363037 
  82      42363832 
  83 0983 30413441 		.ascii	"0A4A1A60FFF70AFF0C4B00221A6000BF0837BD4680BD00BF0CE"
  83      31413630 
  83      46464637 
  83      30414646 
ARM GAS  C:\Users\HENRYK~1\AppData\Local\Temp\ccX4hDQ1.s 			page 6


  83      30433442 
  84 09b6 44303045 		.ascii	"D00E00004FA0514ED00E000290000192C00000080FF1FBC7600"
  84      30303030 
  84      34464130 
  84      35313445 
  84      44303045 
  85 09e9 34304334 		.ascii	"40C480FF1F08ED00E0C080FF1F80B485B000AF0346FB710B4B1"
  85      38304646 
  85      31463038 
  85      45443030 
  85      45304330 
  86 0a1c 42373844 		.ascii	"B78DBB223F01003FB730849FB791B01DBB203F01003DAB2FB7B"
  86      42423232 
  86      33463031 
  86      30303346 
  86      42373330 
  87 0a4f 31333433 		.ascii	"1343DBB20B7000BF1437BD4680BC704700BF2051004080B582B"
  87      44424232 
  87      30423730 
  87      30304246 
  87      31343337 
  88 0a82 30303041 		.ascii	"000AF786008E00C4B1B68184600F01AF87B68A3F500437B607B"
  88      46373836 
  88      30303845 
  88      30304334 
  88      42314236 
  89 0ab5 36384233 		.ascii	"68B3F5004FF2D8064B1B687A6802FB03F3184600F00AF800BF0"
  89      46353030 
  89      34464632 
  89      44383036 
  89      34423142 
  90 0ae8 38333742 		.ascii	"837BD4680BDD880FF1FD080FF1F000000000230800803D000BF"
  90      44343638 
  90      30424444 
  90      38383046 
  90      46314644 
  91 0b1b 30313338 		.ascii	"01380046FCD17047EFF3108072B6704780F31088704700BF014"
  91      30303436 
  91      46434431 
  91      37303437 
  91      45464633 
  92 0b4e 42313836 		.ascii	"B1868704700BF00000000000000000000000000000000000000"
  92      38373034 
  92      37303042 
  92      46303030 
  92      30303030 
  93 0b81 30303030 		.ascii	"00000000000000000000000000AE\000"
  93      30303030 
  93      30303030 
  93      30303030 
  93      30303030 
  94 0b9e 0000     		.align	2
  95              	.LC6:
  96 0ba0 3A303030 		.ascii	":00002E01203C81FF1F0E4B70B51E460E4C0025E41AA410A542"
  96      30324530 
  96      31323033 
  96      43383146 
ARM GAS  C:\Users\HENRYK~1\AppData\Local\Temp\ccX4hDQ1.s 			page 7


  96      46314630 
  97 0bd3 30344430 		.ascii	"04D056F8253098470135F8E700F048F8084B094C1E46E41AA41"
  97      35364638 
  97      32353330 
  97      39383437 
  97      30313335 
  98 0c06 30303032 		.ascii	"00025A54204D056F8253098470135F8E770BDC02E0000C02E00"
  98      35413534 
  98      32303444 
  98      30353646 
  98      38323533 
  99 0c39 30304330 		.ascii	"00C02E0000C82E000010B5431E0A44914204D011F8014B03F80"
  99      32453030 
  99      30304338 
  99      32453030 
  99      30303130 
 100 0c6c 31344646 		.ascii	"14FF8E710BD03460244934202D003F8011BFAE7704700000000"
 100      38453731 
 100      30424430 
 100      33343630 
 100      32343439 
 101 0c9f 30303030 		.ascii	"0000005100401000305100404000C05100401000F0510040100"
 101      30303531 
 101      30303430 
 101      31303030 
 101      33303531 
 102 0cd2 30303030 		.ascii	"000000140001000140140000800400140000A004C0140000200"
 102      30303134 
 102      30303031 
 102      30303031 
 102      34303134 
 103 0d05 35303031 		.ascii	"50014020004300F8B500BFF8BC08BC9E4670473D290000C52C0"
 103      34303230 
 103      30303433 
 103      30304638 
 103      42353030 
 104 0d38 30303046 		.ascii	"000F8B500BFF8BC08BC9E46704719290000E82E0000C880FF1F"
 104      38423530 
 104      30424646 
 104      38424330 
 104      38424339 
 105 0d6b 37383030 		.ascii	"78000000200000000000000000366E01C05D000018000000000"
 105      30303030 
 105      32303030 
 105      30303030 
 105      30303030 
 106 0d9e 30453032 		.ascii	"0E02E0000000000000000000000000000000000000000000000"
 106      45303030 
 106      30303030 
 106      30303030 
 106      30303030 
 107 0dd1 30303030 		.ascii	"00000000000000000000000000F0\000"
 107      30303030 
 107      30303030 
 107      30303030 
 107      30303030 
 108 0dee 0000     		.align	2
ARM GAS  C:\Users\HENRYK~1\AppData\Local\Temp\ccX4hDQ1.s 			page 8


 109              	.LC7:
 110 0df0 3A303030 		.ascii	":00002F01200000000000000000000000000000000000000000"
 110      30324630 
 110      31323030 
 110      30303030 
 110      30303030 
 111 0e23 30303030 		.ascii	"0000000000000000B22E0000000000000000000000000000000"
 111      30303030 
 111      30303030 
 111      30303030 
 111      42323245 
 112 0e56 30303030 		.ascii	"000000000000000000000000000000000000000000000000000"
 112      30303030 
 112      30303030 
 112      30303030 
 112      30303030 
 113 0e89 30303030 		.ascii	"000000000000000000000000000000000000000000DC80FF1F0"
 113      30303030 
 113      30303030 
 113      30303030 
 113      30303030 
 114 0ebc 30303030 		.ascii	"000000000000000000000000000000000000000000000000000"
 114      30303030 
 114      30303030 
 114      30303030 
 114      30303030 
 115 0eef 30303030 		.ascii	"000000000000000000000000000000000000000000000000000"
 115      30303030 
 115      30303030 
 115      30303030 
 115      30303030 
 116 0f22 30303030 		.ascii	"000000000000000000000000000000000000000000000000000"
 116      30303030 
 116      30303030 
 116      30303030 
 116      30303030 
 117 0f55 30303030 		.ascii	"000000000000000000000000000000000000000000000000000"
 117      30303030 
 117      30303030 
 117      30303030 
 117      30303030 
 118 0f88 30303030 		.ascii	"000000000000000000000000000000000000000000000000000"
 118      30303030 
 118      30303030 
 118      30303030 
 118      30303030 
 119 0fbb 30303030 		.ascii	"000000000000000000000000000000000000000000000000000"
 119      30303030 
 119      30303030 
 119      30303030 
 119      30303030 
 120 0fee 30303030 		.ascii	"000000000000000000000000000000000000000000000000000"
 120      30303030 
 120      30303030 
 120      30303030 
 120      30303030 
 121 1021 30303030 		.ascii	"0000000000000000000000000056\000"
ARM GAS  C:\Users\HENRYK~1\AppData\Local\Temp\ccX4hDQ1.s 			page 9


 121      30303030 
 121      30303030 
 121      30303030 
 121      30303030 
 122 103e 0000     		.align	2
 123              	.LC8:
 124 1040 3A303330 		.ascii	":0300FF01200000000000000000000000000000000000000000"
 124      30464630 
 124      31323030 
 124      30303030 
 124      30303030 
 125 1073 30303030 		.ascii	"000000000000000000000000000000000000000000000000000"
 125      30303030 
 125      30303030 
 125      30303030 
 125      30303030 
 126 10a6 30303030 		.ascii	"000000000000000000000000000000000000000000000000000"
 126      30303030 
 126      30303030 
 126      30303030 
 126      30303030 
 127 10d9 30303030 		.ascii	"000000000000000000000000000000000000000000000000000"
 127      30303030 
 127      30303030 
 127      30303030 
 127      30303030 
 128 110c 30303030 		.ascii	"000000000000000000000000000000000000000000000000000"
 128      30303030 
 128      30303030 
 128      30303030 
 128      30303030 
 129 113f 30303030 		.ascii	"000000000000000000000000000000000000000000000000000"
 129      30303030 
 129      30303030 
 129      30303030 
 129      30303030 
 130 1172 30303030 		.ascii	"000000000000000000000000000000000000000000000000000"
 130      30303030 
 130      30303030 
 130      30303030 
 130      30303030 
 131 11a5 30303030 		.ascii	"000000000000000000000000000000000000002111290000280"
 131      30303030 
 131      30303030 
 131      30303030 
 131      30303030 
 132 11d8 30303030 		.ascii	"000000007000000000000000000000000000000000000000000"
 132      30303030 
 132      37303030 
 132      30303030 
 132      30303030 
 133 120b 30303030 		.ascii	"000000000000000000000000000000000000000000000000000"
 133      30303030 
 133      30303030 
 133      30303030 
 133      30303030 
 134 123e 30303030 		.ascii	"000000000000000000000000000000000000000000000000000"
ARM GAS  C:\Users\HENRYK~1\AppData\Local\Temp\ccX4hDQ1.s 			page 10


 134      30303030 
 134      30303030 
 134      30303030 
 134      30303030 
 135 1271 30303030 		.ascii	"0000000000000000000000000053\000"
 135      30303030 
 135      30303030 
 135      30303030 
 135      30303030 
 136              		.data
 137              		.align	2
 138              		.type	blinkStringImage, %object
 139              		.size	blinkStringImage, 36
 140              	blinkStringImage:
 141 0000 00000000 		.word	.LC0
 142 0004 10000000 		.word	.LC1
 143 0008 60020000 		.word	.LC2
 144 000c B0040000 		.word	.LC3
 145 0010 00070000 		.word	.LC4
 146 0014 50090000 		.word	.LC5
 147 0018 A00B0000 		.word	.LC6
 148 001c F00D0000 		.word	.LC7
 149 0020 40100000 		.word	.LC8
 150              		.global	LINE_CNT
 151              		.align	2
 152              		.type	LINE_CNT, %object
 153              		.size	LINE_CNT, 4
 154              	LINE_CNT:
 155 0024 09000000 		.word	9
 156              		.comm	comm1,20,4
 157              		.global	toggle
 158              		.bss
 159              		.type	toggle, %object
 160              		.size	toggle, 1
 161              	toggle:
 162 0000 00       		.space	1
 163              		.section	.text.main,"ax",%progbits
 164              		.align	2
 165              		.global	main
 166              		.thumb
 167              		.thumb_func
 168              		.type	main, %function
 169              	main:
 170              	.LFB64:
 171              		.file 1 "main.c"
   1:main.c        **** /*  -----------------------------------------------------------------------------------------------
   2:main.c        **** * Copyright 2016, Cypress Semiconductor Corporation.
   3:main.c        **** *
   4:main.c        **** * This software is owned by Cypress Semiconductor Corporation (Cypress)
   5:main.c        **** * and is protected by and subject to worldwide patent protection (United
   6:main.c        **** * States and foreign), United States copyright laws and international
   7:main.c        **** * treaty provisions. Cypress hereby grants to licensee a personal,
   8:main.c        **** * non-exclusive, non-transferable license to copy, use, modify, create
   9:main.c        **** * derivative works of, and compile the Cypress Source Code and derivative
  10:main.c        **** * works for the sole purpose of creating custom software in support of
  11:main.c        **** * licensee product to be used only in conjunction with a Cypress integrated
  12:main.c        **** * circuit as specified in the applicable agreement. Any reproduction,
ARM GAS  C:\Users\HENRYK~1\AppData\Local\Temp\ccX4hDQ1.s 			page 11


  13:main.c        **** * modification, translation, compilation, or representation of this
  14:main.c        **** * software except as specified above is prohibited without the express
  15:main.c        **** * written permission of Cypress.
  16:main.c        **** * 
  17:main.c        **** * Disclaimer: CYPRESS MAKES NO WARRANTY OF ANY KIND,EXPRESS OR IMPLIED,
  18:main.c        **** * WITH REGARD TO THIS MATERIAL, INCLUDING, BUT NOT LIMITED TO, THE IMPLIED
  19:main.c        **** * WARRANTIES OF MERCHANTABILITY AND FITNESS FOR A PARTICULAR PURPOSE.
  20:main.c        **** * Cypress reserves the right to make changes without further notice to the
  21:main.c        **** * materials described herein. Cypress does not assume any liability arising
  22:main.c        **** * out of the application or use of any product or circuit described herein.
  23:main.c        **** * Cypress does not authorize its products for use as critical components in
  24:main.c        **** * life-support systems where a malfunction or failure may reasonably be
  25:main.c        **** * expected to result in significant injury to the user. The inclusion of
  26:main.c        **** * Cypress' product in a life-support systems application implies that the
  27:main.c        **** * manufacturer assumes all risk of such use and in doing so indemnifies
  28:main.c        **** * Cypress against all charges.
  29:main.c        **** * 
  30:main.c        **** * Use may be limited by and subject to the applicable Cypress software
  31:main.c        **** * license agreement.
  32:main.c        **** * -------------------------------------------------------------------------------------------------
  33:main.c        **** * Copyright (c) Cypress Semiconductors 2000-2015. All Rights Reserved.
  34:main.c        **** *
  35:main.c        **** ***************************************************************************************************
  36:main.c        **** *  Project Name: UART_Bootloader_Host_PSoC5LP
  37:main.c        **** *  Project Revision: 1.00
  38:main.c        **** *  Software Version: PSoC Creator 3.3 SP2
  39:main.c        **** *  Device Tested: CY8C5868AXI-LP035
  40:main.c        **** *  Compilers Tested: ARM GCC
  41:main.c        **** *  Related Hardware: CY8CKIT-050
  42:main.c        **** ***************************************************************************************************
  43:main.c        **** ***************************************************************************************************
  44:main.c        **** 
  45:main.c        **** /**************************************************************************************************
  46:main.c        **** * Project Description:
  47:main.c        **** * This is a sample bootloader host program demonstrating PSoC5LP bootloading
  48:main.c        **** * PSoC 3 or PSoC 4 or PSoC Analog Coprocessor or PSoC 5LP. The project is tested using CY8CKIT-050 
  49:main.c        **** * PSoC 5LP chip and CY8CKIT-030 (CY8CKIT-042) with PSoC 3 (PSoC 4) chip.
  50:main.c        **** * PSoC 3 (PSoC 4, PSoC Analog Coprocessor) must be programmed with the UART Bootloader Program atta
  51:main.c        **** * with the app note.
  52:main.c        **** *
  53:main.c        **** * Connections Required
  54:main.c        **** * CY8CKIT-050 (PSoC 5LP DVK) :
  55:main.c        **** *  P0[0] - Rx -  connected to Tx of PSoC3
  56:main.c        **** *  P0[1] - Tx -  connected to Rx of PSoC3 
  57:main.c        **** *  P6.1 is internally connected to SW2 on DVK.
  58:main.c        **** *
  59:main.c        **** * CY8CKIT-030 (PSoC 3 DVK) : PSoC  3 intially programmed with 
  60:main.c        **** * UART_Bootloader program.
  61:main.c        **** *  P0[0] - Rx - Connected to Tx of PSoC 5LP
  62:main.c        **** *  P0[1] - Tx - Connected to Rx of PSoC 5LP
  63:main.c        **** *  P6.1 is internally connected to SW2 on DVK.
  64:main.c        **** *
  65:main.c        **** * If you are using a PSoC 4 as your target, the connections are as follows:
  66:main.c        **** * CY8CKIT-042 (PSoC 4 DVK) : PSoC  4 intially programmed with 
  67:main.c        **** * UART_Bootloader (PSoC 4 project) program.
  68:main.c        **** *  P0[0] - Rx - Connected to Tx of PSoC 5LP
  69:main.c        **** *  P0[1] - Tx - Connected to Rx of PSoC 5LP
ARM GAS  C:\Users\HENRYK~1\AppData\Local\Temp\ccX4hDQ1.s 			page 12


  70:main.c        **** *  P0.7 is internally connected to SW2 on DVK.
  71:main.c        **** *
  72:main.c        **** *If you are using PSoC 5LP as your target, the connections on the DVK 
  73:main.c        **** * remain same as that for CY8CKIT-030 (PSoC 3).
  74:main.c        **** *
  75:main.c        **** * Note that the GNDs of both DVKs should be connected together.
  76:main.c        **** *
  77:main.c        **** * Bootload function is defined in main.c: BootloadStringImage which uses 
  78:main.c        **** * Bootloader Host APIs to bootload the contents of .cyacd file.
  79:main.c        **** *
  80:main.c        **** * BootloadStringImage function requires each line of .cyacd to be stored 
  81:main.c        **** * as a seperate string in a string array. The total number of lines in 
  82:main.c        **** * the file should also be manually calculated and stored as #define LINE_CNT
  83:main.c        **** * The string image of .cyacd file is stored in StringImage.h file.
  84:main.c        **** *
  85:main.c        **** * The following events happens alternatively on each switch press
  86:main.c        **** * On first switch press it will bootload 'stringImage_1' stored in StringImage.h
  87:main.c        **** * using BootloadStringImage function . 
  88:main.c        **** * On next switch press it will bootload 'stringImage_2' stored in StringImage.h
  89:main.c        **** * using BootloadStringImage function .
  90:main.c        **** *
  91:main.c        **** * These bootloadable images display either "Hello" or "Bye" on the first row of 
  92:main.c        **** * LCD(PSoC 3 DVK). In the case of PSoC 4, they blink Green and Blue LEDs.
  93:main.c        **** * Note that in order to enter the bootloader from the application program 
  94:main.c        **** * P6.1 - connected to SW2 (in the case of PSoC 4, P0.7 connected to SW2 on
  95:main.c        **** * CY8CKIT-030) should be pressed so that the application program running on
  96:main.c        **** * PSoC 3 (PSoC 4) enters Bootloader and is ready to bootload a new application
  97:main.c        **** * code/data . 
  98:main.c        **** *
  99:main.c        **** ***************************************************************************************************
 100:main.c        **** 
 101:main.c        **** #include <device.h>
 102:main.c        **** #include "string.h"
 103:main.c        **** #include <cybtldr_parse.h>
 104:main.c        **** #include <cybtldr_command.h>
 105:main.c        **** #include <communication_api.h>
 106:main.c        **** #include <cybtldr_api.h>
 107:main.c        **** #include "StringImage2.h"
 108:main.c        **** 
 109:main.c        **** /* Macros to choose among PSoC 3, PSoC 4 and PSoC 5LP as a target device */
 110:main.c        **** #define PSoC_3       0
 111:main.c        **** #define PSoC_5LP     1
 112:main.c        **** #define PSoC_4		 2
 113:main.c        **** #define PSoC_AC      2
 114:main.c        **** /* If your target device is PSoC 4 or PSoC 5LP, change the value of this Macro
 115:main.c        ****    to "PSoC_4" or "PSoC_5LP" respectively */
 116:main.c        **** #define TARGET_DEVICE PSoC_5LP
 117:main.c        **** 
 118:main.c        **** /* This function bootloads the .cyacd file. It sends command packets and 
 119:main.c        ****    flash data to the target. Based on the response from the target, it decides
 120:main.c        ****    whether to continue bootloading or end it. */
 121:main.c        **** uint16 BootloadStringImage(const char *bootloadImagePtr[],unsigned int lineCount );
 122:main.c        **** 
 123:main.c        **** /* This structure contains function pointers to the four communication layer 
 124:main.c        ****    functions contained in the communication_api.c / .h */
 125:main.c        **** CyBtldr_CommunicationsData comm1 ;
 126:main.c        **** 
ARM GAS  C:\Users\HENRYK~1\AppData\Local\Temp\ccX4hDQ1.s 			page 13


 127:main.c        **** /* toggle alternates between the two bootloadable files 
 128:main.c        ****    (Hello and Bye) of (Green and Blue) */
 129:main.c        **** uint8 toggle = 0;
 130:main.c        **** 
 131:main.c        **** 
 132:main.c        **** int main()
 133:main.c        **** {
 172              		.loc 1 133 0
 173              		.cfi_startproc
 174              		@ args = 0, pretend = 0, frame = 8
 175              		@ frame_needed = 1, uses_anonymous_args = 0
 176 0000 80B5     		push	{r7, lr}
 177              		.cfi_def_cfa_offset 8
 178              		.cfi_offset 7, -8
 179              		.cfi_offset 14, -4
 180 0002 82B0     		sub	sp, sp, #8
 181              		.cfi_def_cfa_offset 16
 182 0004 00AF     		add	r7, sp, #0
 183              		.cfi_def_cfa_register 7
 134:main.c        ****     /* error holds the success / failure message of the bootload operation */
 135:main.c        **** 	uint16 error = 0;
 184              		.loc 1 135 0
 185 0006 0023     		movs	r3, #0
 186 0008 FB80     		strh	r3, [r7, #6]	@ movhi
 136:main.c        **** 
 137:main.c        **** 	/* Display the instruction to the user on how to start bootloading */
 138:main.c        **** //	LCD_Char_Start();	
 139:main.c        **** //	LCD_Char_Position(1,0);
 140:main.c        **** //	LCD_Char_PrintString("P6.1 to BL");
 141:main.c        **** 	
 142:main.c        **** 	/* Enable all interrupts */
 143:main.c        **** 	CYGlobalIntEnable;
 187              		.loc 1 143 0
 188              		.syntax unified
 189              	@ 143 "main.c" 1
 190 000a 62B6     		CPSIE   i
 191              	@ 0 "" 2
 144:main.c        **** 
 145:main.c        **** 	/* Initialize the communication structure element -comm1 */
 146:main.c        **** 	comm1.OpenConnection = &OpenConnection;
 192              		.loc 1 146 0
 193              		.thumb
 194              		.syntax unified
 195 000c 164B     		ldr	r3, .L4
 196 000e 174A     		ldr	r2, .L4+4
 197 0010 1A60     		str	r2, [r3]
 147:main.c        **** 	comm1.CloseConnection = &CloseConnection;
 198              		.loc 1 147 0
 199 0012 154B     		ldr	r3, .L4
 200 0014 164A     		ldr	r2, .L4+8
 201 0016 5A60     		str	r2, [r3, #4]
 148:main.c        **** 	comm1.ReadData = &ReadData;
 202              		.loc 1 148 0
 203 0018 134B     		ldr	r3, .L4
 204 001a 164A     		ldr	r2, .L4+12
 205 001c 9A60     		str	r2, [r3, #8]
 149:main.c        **** 	comm1.WriteData =&WriteData;
ARM GAS  C:\Users\HENRYK~1\AppData\Local\Temp\ccX4hDQ1.s 			page 14


 206              		.loc 1 149 0
 207 001e 124B     		ldr	r3, .L4
 208 0020 154A     		ldr	r2, .L4+16
 209 0022 DA60     		str	r2, [r3, #12]
 150:main.c        **** 	comm1.MaxTransferSize =64;
 210              		.loc 1 150 0
 211 0024 104B     		ldr	r3, .L4
 212 0026 4022     		movs	r2, #64
 213 0028 1A61     		str	r2, [r3, #16]
 214              	.L3:
 151:main.c        ****         
 152:main.c        ****     for(;;)
 153:main.c        ****     {
 154:main.c        ****         error = BootloadStringImage(blinkStringImage,LINE_CNT);
 215              		.loc 1 154 0
 216 002a 144B     		ldr	r3, .L4+20
 217 002c 1B68     		ldr	r3, [r3]
 218 002e 1946     		mov	r1, r3
 219 0030 1348     		ldr	r0, .L4+24
 220 0032 FFF7FEFF 		bl	BootloadStringImage
 221 0036 0346     		mov	r3, r0
 222 0038 FB80     		strh	r3, [r7, #6]	@ movhi
 155:main.c        ****         if(error == CYRET_SUCCESS)
 223              		.loc 1 155 0
 224 003a FB88     		ldrh	r3, [r7, #6]
 225 003c 002B     		cmp	r3, #0
 226 003e F4D0     		beq	.L3
 156:main.c        ****             {
 157:main.c        **** 	            //LCD_Char_Position(0,0);
 158:main.c        **** 				
 159:main.c        ****                 /* Display the success message */
 160:main.c        **** 				
 161:main.c        ****             }
 162:main.c        ****             
 163:main.c        ****             else //bootloader operation was not successful
 164:main.c        ****             {
 165:main.c        ****                 LED_B_Write(1);
 227              		.loc 1 165 0
 228 0040 0120     		movs	r0, #1
 229 0042 FFF7FEFF 		bl	LED_B_Write
 166:main.c        ****                 LED_G_Write(1);
 230              		.loc 1 166 0
 231 0046 0120     		movs	r0, #1
 232 0048 FFF7FEFF 		bl	LED_G_Write
 167:main.c        ****                 LED_R_Write(1);
 233              		.loc 1 167 0
 234 004c 0120     		movs	r0, #1
 235 004e FFF7FEFF 		bl	LED_R_Write
 168:main.c        ****                 /* Display the failure message along with the approiate error code */
 169:main.c        ****                 if(error & CYRET_ERR_COMM_MASK) /* Check for comm error*/
 236              		.loc 1 169 0
 237 0052 FB88     		ldrh	r3, [r7, #6]
 238 0054 03F40053 		and	r3, r3, #8192
 239 0058 002B     		cmp	r3, #0
 240 005a E6D1     		bne	.L3
 170:main.c        ****                 {
 171:main.c        ****                     //LCD_Char_Position(0,0);
ARM GAS  C:\Users\HENRYK~1\AppData\Local\Temp\ccX4hDQ1.s 			page 15


 172:main.c        ****                     //LCD_Char_PrintString("Communicatn Err ");
 173:main.c        ****                 }
 174:main.c        ****                 else /* Else Display the bootload error code */
 175:main.c        ****                 {
 176:main.c        ****                     //LCD_Char_Position(0,0);
 177:main.c        ****                     //LCD_Char_PrintString("Bootload Err :");
 178:main.c        ****                     //LCD_Char_PrintHexUint8(error);
 179:main.c        **** 					CyDelay(4000);
 241              		.loc 1 179 0
 242 005c 4FF47A60 		mov	r0, #4000
 243 0060 FFF7FEFF 		bl	CyDelay
 180:main.c        ****                 }
 181:main.c        ****             }   
 182:main.c        ****     }
 244              		.loc 1 182 0
 245 0064 E1E7     		b	.L3
 246              	.L5:
 247 0066 00BF     		.align	2
 248              	.L4:
 249 0068 00000000 		.word	comm1
 250 006c 00000000 		.word	OpenConnection
 251 0070 00000000 		.word	CloseConnection
 252 0074 00000000 		.word	ReadData
 253 0078 00000000 		.word	WriteData
 254 007c 00000000 		.word	LINE_CNT
 255 0080 00000000 		.word	blinkStringImage
 256              		.cfi_endproc
 257              	.LFE64:
 258              		.size	main, .-main
 259              		.section	.text.BootloadStringImage,"ax",%progbits
 260              		.align	2
 261              		.global	BootloadStringImage
 262              		.thumb
 263              		.thumb_func
 264              		.type	BootloadStringImage, %function
 265              	BootloadStringImage:
 266              	.LFB65:
 183:main.c        ****     
 184:main.c        **** //    for(;;)
 185:main.c        **** //    {
 186:main.c        **** //	    /* If Switch is pressed and if toggle =0,the image to be bootloaded is Hello */
 187:main.c        **** //		if(1)
 188:main.c        **** //		{
 189:main.c        **** ////			LCD_Char_Position(0,0);
 190:main.c        **** ////			LCD_Char_PrintString("Bootloading...  ");
 191:main.c        **** //			
 192:main.c        **** //                 
 193:main.c        **** //			/* Select the Bootloadable files based on the target device */
 194:main.c        **** //            if(TARGET_DEVICE == PSoC_3)
 195:main.c        **** //            {	
 196:main.c        **** //				
 197:main.c        **** //                 /* Alternate between the two bootloadable files 
 198:main.c        **** //				    (Hello and Bye) based on toggle */    
 199:main.c        **** //                if (toggle == 0)
 200:main.c        **** //                {   
 201:main.c        **** //                    /* Bootload the Bootloadable_1.cyacd (Hello) */
 202:main.c        **** //                    error = BootloadStringImage(stringImage_1,LINE_CNT_1);
ARM GAS  C:\Users\HENRYK~1\AppData\Local\Temp\ccX4hDQ1.s 			page 16


 203:main.c        **** //                }
 204:main.c        **** //                 else if(toggle == 1)
 205:main.c        **** //                {
 206:main.c        **** //                     /* Bootload the Bootloadable_2.cyacd (Bye) */
 207:main.c        **** //                     error = BootloadStringImage(stringImage_2,LINE_CNT_2);
 208:main.c        **** //                }
 209:main.c        **** //            }
 210:main.c        **** //            
 211:main.c        **** //            // This gets selected
 212:main.c        **** //            else if(TARGET_DEVICE == PSoC_5LP)
 213:main.c        **** //            {
 214:main.c        **** //				
 215:main.c        **** //                 /* Alternate between the two bootloadable files 
 216:main.c        **** //				    (Hello and Bye) based on toggle */    
 217:main.c        **** //                if (toggle == 0)
 218:main.c        **** //                {   
 219:main.c        **** //                     /* Bootload the Bootloadable_1.cyacd (Hello) */
 220:main.c        **** //                    error = BootloadStringImage(stringImage_3,LINE_CNT_3);
 221:main.c        **** //                }
 222:main.c        **** //                 else if(toggle == 1)
 223:main.c        **** //                {
 224:main.c        **** //                     /* Bootload the Bootloadable_2.cyacd (Bye) */
 225:main.c        **** //                     error = BootloadStringImage(stringImage_4,LINE_CNT_4);
 226:main.c        **** //                }
 227:main.c        **** //				
 228:main.c        **** //            }
 229:main.c        **** //            
 230:main.c        **** ////			else if(TARGET_DEVICE == PSoC_4)
 231:main.c        **** ////            {
 232:main.c        **** ////				
 233:main.c        **** ////                 /* Alternate between the two bootloadable files 
 234:main.c        **** ////				    (Green and Blue) based on toggle */    
 235:main.c        **** ////                if (toggle == 0)
 236:main.c        **** ////                {   
 237:main.c        **** ////                     /* Bootload the Bootloadable_1.cyacd (Green LED) */
 238:main.c        **** ////                    error = BootloadStringImage(stringImage_5,LINE_CNT_5);
 239:main.c        **** ////                }
 240:main.c        **** ////                else if(toggle == 1)
 241:main.c        **** ////                {
 242:main.c        **** ////                     /* Bootload the Bootloadable_2.cyacd (Blue LED) */
 243:main.c        **** ////                     error = BootloadStringImage(stringImage_6,LINE_CNT_6);
 244:main.c        **** ////                }
 245:main.c        **** ////				
 246:main.c        **** ////            }
 247:main.c        **** //            
 248:main.c        **** //            else
 249:main.c        **** //            {
 250:main.c        **** //                 /* Do nothing if the target device is none of 
 251:main.c        **** //				    PSoC 3, PSoC 4 or PSoC 5LP */
 252:main.c        **** //            }
 253:main.c        **** //             	 
 254:main.c        **** //			/* Check if the bootload operation is successful */
 255:main.c        **** //            if(error == CYRET_SUCCESS)
 256:main.c        **** //            {
 257:main.c        **** //	            //LCD_Char_Position(0,0);
 258:main.c        **** //				
 259:main.c        **** //                /* Display the success message */
ARM GAS  C:\Users\HENRYK~1\AppData\Local\Temp\ccX4hDQ1.s 			page 17


 260:main.c        **** //				if(TARGET_DEVICE == PSoC_4)
 261:main.c        **** //				{
 262:main.c        **** ////					if(toggle == 0)
 263:main.c        **** ////	                {
 264:main.c        **** ////	                    LCD_Char_PrintString("Bootloaded-Green");
 265:main.c        **** ////	                    LCD_Char_Position(1,0);
 266:main.c        **** ////	                    LCD_Char_PrintString("P6.1 to BL Blue ");
 267:main.c        **** ////						toggle = 1;
 268:main.c        **** ////	                }
 269:main.c        **** ////	                else
 270:main.c        **** ////	                {
 271:main.c        **** ////	                    LCD_Char_PrintString("Bootloaded-Blue");
 272:main.c        **** ////	                    LCD_Char_Position(1,0);
 273:main.c        **** ////	                    LCD_Char_PrintString("P6.1 to BL Green");
 274:main.c        **** ////	                    toggle = 0;
 275:main.c        **** ////	                }
 276:main.c        **** //				}
 277:main.c        **** //				else
 278:main.c        **** //				{
 279:main.c        **** //	                if(toggle == 0)
 280:main.c        **** //	                {
 281:main.c        **** //	                    //LCD_Char_PrintString("Bootloaded-Hello");
 282:main.c        **** //	                    //LCD_Char_Position(1,0);
 283:main.c        **** //	                    //LCD_Char_PrintString("P6.1 to BL Bye  ");
 284:main.c        **** //						toggle = 1;
 285:main.c        **** //	                }
 286:main.c        **** //	                else
 287:main.c        **** //	                {
 288:main.c        **** //	                    //LCD_Char_PrintString("Bootloaded-Bye");
 289:main.c        **** //	                    //LCD_Char_Position(1,0);
 290:main.c        **** //	                    //LCD_Char_PrintString("P6.1 to BL Hello  ");
 291:main.c        **** //	                    toggle = 0;
 292:main.c        **** //	                }
 293:main.c        **** //				}
 294:main.c        **** //            }
 295:main.c        **** //            
 296:main.c        **** //            else //bootloader operation was not successful
 297:main.c        **** //            {
 298:main.c        **** //                LED_B_Write(1);
 299:main.c        **** //                LED_G_Write(1);
 300:main.c        **** //                LED_R_Write(1);
 301:main.c        **** //                /* Display the failure message along with the approiate error code */
 302:main.c        **** //                if(error & CYRET_ERR_COMM_MASK) /* Check for comm error*/
 303:main.c        **** //                {
 304:main.c        **** //                    //LCD_Char_Position(0,0);
 305:main.c        **** //                    //LCD_Char_PrintString("Communicatn Err ");
 306:main.c        **** //                }
 307:main.c        **** //                else /* Else Display the bootload error code */
 308:main.c        **** //                {
 309:main.c        **** //                    //LCD_Char_Position(0,0);
 310:main.c        **** //                    //LCD_Char_PrintString("Bootload Err :");
 311:main.c        **** //                    //LCD_Char_PrintHexUint8(error);
 312:main.c        **** //					CyDelay(4000);
 313:main.c        **** //                }
 314:main.c        **** //            }   
 315:main.c        **** //        }
 316:main.c        **** //        
ARM GAS  C:\Users\HENRYK~1\AppData\Local\Temp\ccX4hDQ1.s 			page 18


 317:main.c        **** //        else 
 318:main.c        **** //        {
 319:main.c        **** //		
 320:main.c        **** //            /* Do Nothing */
 321:main.c        **** //        }
 322:main.c        **** //	}
 323:main.c        **** }	
 324:main.c        **** 
 325:main.c        **** 
 326:main.c        **** /**************************************************************************************************
 327:main.c        **** * Function Name: BootloadStringImage
 328:main.c        **** ***************************************************************************************************
 329:main.c        **** *
 330:main.c        **** * Summary:
 331:main.c        **** *  Bootloads the .cyacd file contents which is stored as string array
 332:main.c        **** *
 333:main.c        **** * Parameters:  
 334:main.c        **** * bootloadImagePtr - Pointer to the string array
 335:main.c        **** * lineCount - No. of lines in the .cyacd file(No: of rows in the string array)
 336:main.c        **** *
 337:main.c        **** * Return: 
 338:main.c        **** *  Returns a flag to indicate whether the bootload operation was successful or not
 339:main.c        **** *
 340:main.c        **** *
 341:main.c        **** ***************************************************************************************************
 342:main.c        **** uint16 BootloadStringImage(const char *bootloadImagePtr[],unsigned int lineCount )
 343:main.c        **** {
 267              		.loc 1 343 0
 268              		.cfi_startproc
 269              		@ args = 0, pretend = 0, frame = 328
 270              		@ frame_needed = 1, uses_anonymous_args = 0
 271 0000 80B5     		push	{r7, lr}
 272              		.cfi_def_cfa_offset 8
 273              		.cfi_offset 7, -8
 274              		.cfi_offset 14, -4
 275 0002 D6B0     		sub	sp, sp, #344
 276              		.cfi_def_cfa_offset 352
 277 0004 04AF     		add	r7, sp, #16
 278              		.cfi_def_cfa 7, 336
 279 0006 3B1D     		adds	r3, r7, #4
 280 0008 1860     		str	r0, [r3]
 281 000a 3B46     		mov	r3, r7
 282 000c 1960     		str	r1, [r3]
 344:main.c        **** 	uint16 err=0;
 283              		.loc 1 344 0
 284 000e 0023     		movs	r3, #0
 285 0010 A7F84631 		strh	r3, [r7, #326]	@ movhi
 345:main.c        **** 	unsigned char arrayId; 
 346:main.c        **** 	unsigned short rowNum;
 347:main.c        **** 	unsigned short rowSize; 
 348:main.c        **** 	unsigned char checksum ;
 349:main.c        **** 	unsigned char checksum2;
 350:main.c        **** 	unsigned long blVer=0;
 286              		.loc 1 350 0
 287 0014 0023     		movs	r3, #0
 288 0016 C7F83031 		str	r3, [r7, #304]
 351:main.c        **** 	/* rowData buffer size should be equal to the length of data to be sent for
ARM GAS  C:\Users\HENRYK~1\AppData\Local\Temp\ccX4hDQ1.s 			page 19


 352:main.c        **** 	*  each flash row. It equals 288 , if ECC  is disabled in the bootloadable project,
 353:main.c        **** 	*  else 255 (in the case of PSoC 4 the flash row size is 128) */
 354:main.c        **** 	unsigned char rowData[288];
 355:main.c        **** 	unsigned int lineLen;
 356:main.c        **** 	unsigned long  siliconID;
 357:main.c        **** 	unsigned char siliconRev;
 358:main.c        **** 	unsigned char packetChkSumType;
 359:main.c        **** 	unsigned int lineCntr ;
 360:main.c        **** 	
 361:main.c        **** 	/* Initialize line counter */
 362:main.c        **** 	lineCntr = 0;
 289              		.loc 1 362 0
 290 001a 0023     		movs	r3, #0
 291 001c C7F84031 		str	r3, [r7, #320]
 363:main.c        **** 	
 364:main.c        **** 	/* Get length of the first line in cyacd file*/
 365:main.c        **** 	lineLen = strlen(bootloadImagePtr[lineCntr]);
 292              		.loc 1 365 0
 293 0020 D7F84031 		ldr	r3, [r7, #320]
 294 0024 9B00     		lsls	r3, r3, #2
 295 0026 3A1D     		adds	r2, r7, #4
 296 0028 1268     		ldr	r2, [r2]
 297 002a 1344     		add	r3, r3, r2
 298 002c 1B68     		ldr	r3, [r3]
 299 002e 1846     		mov	r0, r3
 300 0030 FFF7FEFF 		bl	strlen
 301 0034 C7F83C01 		str	r0, [r7, #316]
 366:main.c        **** 	
 367:main.c        **** 	/* Parse the first line(header) of cyacd file to extract 
 368:main.c        **** 	   siliconID, siliconRev and packetChkSumType */
 369:main.c        **** 	err = CyBtldr_ParseHeader(lineLen ,(unsigned char *)bootloadImagePtr[lineCntr] , &siliconID , &sil
 302              		.loc 1 369 0
 303 0038 D7F84031 		ldr	r3, [r7, #320]
 304 003c 9B00     		lsls	r3, r3, #2
 305 003e 3A1D     		adds	r2, r7, #4
 306 0040 1268     		ldr	r2, [r2]
 307 0042 1344     		add	r3, r3, r2
 308 0044 1968     		ldr	r1, [r3]
 309 0046 07F10B00 		add	r0, r7, #11
 310 004a 07F10C02 		add	r2, r7, #12
 311 004e 07F10A03 		add	r3, r7, #10
 312 0052 0093     		str	r3, [sp]
 313 0054 0346     		mov	r3, r0
 314 0056 D7F83C01 		ldr	r0, [r7, #316]
 315 005a FFF7FEFF 		bl	CyBtldr_ParseHeader
 316 005e 0346     		mov	r3, r0
 317 0060 A7F84631 		strh	r3, [r7, #326]	@ movhi
 370:main.c        ****     	
 371:main.c        **** 	/* Set the packet checksum type for communicating with bootloader. 
 372:main.c        **** 	   The packet checksum type to be used is determined from the 
 373:main.c        **** 	   cyacd file header information */
 374:main.c        **** 	CyBtldr_SetCheckSumType((CyBtldr_ChecksumType)packetChkSumType);
 318              		.loc 1 374 0
 319 0064 07F10A03 		add	r3, r7, #10
 320 0068 1B78     		ldrb	r3, [r3]	@ zero_extendqisi2
 321 006a 1846     		mov	r0, r3
 322 006c FFF7FEFF 		bl	CyBtldr_SetCheckSumType
ARM GAS  C:\Users\HENRYK~1\AppData\Local\Temp\ccX4hDQ1.s 			page 20


 375:main.c        **** 	
 376:main.c        **** 	if(err==CYRET_SUCCESS)
 323              		.loc 1 376 0
 324 0070 B7F84631 		ldrh	r3, [r7, #326]
 325 0074 002B     		cmp	r3, #0
 326 0076 40F08D80 		bne	.L7
 377:main.c        **** 	{
 378:main.c        **** 		/* Start Bootloader operation */
 379:main.c        **** 		err = CyBtldr_StartBootloadOperation(&comm1 ,siliconID, siliconRev ,&blVer);
 327              		.loc 1 379 0
 328 007a 07F10C03 		add	r3, r7, #12
 329 007e 1968     		ldr	r1, [r3]
 330 0080 07F10B03 		add	r3, r7, #11
 331 0084 1A78     		ldrb	r2, [r3]	@ zero_extendqisi2
 332 0086 07F59873 		add	r3, r7, #304
 333 008a 4648     		ldr	r0, .L13
 334 008c FFF7FEFF 		bl	CyBtldr_StartBootloadOperation
 335 0090 0346     		mov	r3, r0
 336 0092 A7F84631 		strh	r3, [r7, #326]	@ movhi
 380:main.c        **** 		lineCntr++ ;
 337              		.loc 1 380 0
 338 0096 D7F84031 		ldr	r3, [r7, #320]
 339 009a 0133     		adds	r3, r3, #1
 340 009c C7F84031 		str	r3, [r7, #320]
 381:main.c        **** 		while((err == CYRET_SUCCESS)&& ( lineCntr <  lineCount ))
 341              		.loc 1 381 0
 342 00a0 6CE0     		b	.L8
 343              	.L11:
 382:main.c        **** 		{
 383:main.c        **** 		
 384:main.c        ****             /* Get the string length for the line*/
 385:main.c        **** 			lineLen =  strlen(bootloadImagePtr[lineCntr]);
 344              		.loc 1 385 0
 345 00a2 D7F84031 		ldr	r3, [r7, #320]
 346 00a6 9B00     		lsls	r3, r3, #2
 347 00a8 3A1D     		adds	r2, r7, #4
 348 00aa 1268     		ldr	r2, [r2]
 349 00ac 1344     		add	r3, r3, r2
 350 00ae 1B68     		ldr	r3, [r3]
 351 00b0 1846     		mov	r0, r3
 352 00b2 FFF7FEFF 		bl	strlen
 353 00b6 C7F83C01 		str	r0, [r7, #316]
 386:main.c        **** 			
 387:main.c        **** 			/*Parse row data*/
 388:main.c        **** 			err = CyBtldr_ParseRowData((unsigned int)lineLen,(unsigned char *)bootloadImagePtr[lineCntr], &a
 354              		.loc 1 388 0
 355 00ba D7F84031 		ldr	r3, [r7, #320]
 356 00be 9B00     		lsls	r3, r3, #2
 357 00c0 3A1D     		adds	r2, r7, #4
 358 00c2 1268     		ldr	r2, [r2]
 359 00c4 1344     		add	r3, r3, r2
 360 00c6 1968     		ldr	r1, [r3]
 361 00c8 07F59C70 		add	r0, r7, #312
 362 00cc 07F59D72 		add	r2, r7, #314
 363 00d0 07F23513 		addw	r3, r7, #309
 364 00d4 0293     		str	r3, [sp, #8]
 365 00d6 07F59B73 		add	r3, r7, #310
ARM GAS  C:\Users\HENRYK~1\AppData\Local\Temp\ccX4hDQ1.s 			page 21


 366 00da 0193     		str	r3, [sp, #4]
 367 00dc 07F11003 		add	r3, r7, #16
 368 00e0 0093     		str	r3, [sp]
 369 00e2 0346     		mov	r3, r0
 370 00e4 D7F83C01 		ldr	r0, [r7, #316]
 371 00e8 FFF7FEFF 		bl	CyBtldr_ParseRowData
 372 00ec 0346     		mov	r3, r0
 373 00ee A7F84631 		strh	r3, [r7, #326]	@ movhi
 389:main.c        ****           	
 390:main.c        **** 			
 391:main.c        **** 			if (CYRET_SUCCESS == err)
 374              		.loc 1 391 0
 375 00f2 B7F84631 		ldrh	r3, [r7, #326]
 376 00f6 002B     		cmp	r3, #0
 377 00f8 3BD1     		bne	.L9
 392:main.c        ****             {
 393:main.c        **** 				/* Program Row */
 394:main.c        **** 				err = CyBtldr_ProgramRow(arrayId, rowNum, rowData, rowSize);
 378              		.loc 1 394 0
 379 00fa 97F83A01 		ldrb	r0, [r7, #314]	@ zero_extendqisi2
 380 00fe B7F83811 		ldrh	r1, [r7, #312]
 381 0102 B7F83631 		ldrh	r3, [r7, #310]
 382 0106 07F11002 		add	r2, r7, #16
 383 010a FFF7FEFF 		bl	CyBtldr_ProgramRow
 384 010e 0346     		mov	r3, r0
 385 0110 A7F84631 		strh	r3, [r7, #326]	@ movhi
 395:main.c        **** 				
 396:main.c        **** 	            if (CYRET_SUCCESS == err)
 386              		.loc 1 396 0
 387 0114 B7F84631 		ldrh	r3, [r7, #326]
 388 0118 002B     		cmp	r3, #0
 389 011a 2AD1     		bne	.L9
 397:main.c        **** 				{
 398:main.c        **** 					/* Verify Row . Check whether the checksum received from bootloader matches
 399:main.c        **** 					* the expected row checksum stored in cyacd file*/
 400:main.c        **** 					checksum2 = (unsigned char)(checksum + arrayId + rowNum + (rowNum >> 8) + rowSize + (rowSize >
 390              		.loc 1 400 0
 391 011c 97F83521 		ldrb	r2, [r7, #309]	@ zero_extendqisi2
 392 0120 97F83A31 		ldrb	r3, [r7, #314]	@ zero_extendqisi2
 393 0124 1344     		add	r3, r3, r2
 394 0126 DAB2     		uxtb	r2, r3
 395 0128 B7F83831 		ldrh	r3, [r7, #312]
 396 012c DBB2     		uxtb	r3, r3
 397 012e 1344     		add	r3, r3, r2
 398 0130 DAB2     		uxtb	r2, r3
 399 0132 B7F83831 		ldrh	r3, [r7, #312]
 400 0136 1B0A     		lsrs	r3, r3, #8
 401 0138 9BB2     		uxth	r3, r3
 402 013a DBB2     		uxtb	r3, r3
 403 013c 1344     		add	r3, r3, r2
 404 013e DAB2     		uxtb	r2, r3
 405 0140 B7F83631 		ldrh	r3, [r7, #310]
 406 0144 DBB2     		uxtb	r3, r3
 407 0146 1344     		add	r3, r3, r2
 408 0148 DAB2     		uxtb	r2, r3
 409 014a B7F83631 		ldrh	r3, [r7, #310]
 410 014e 1B0A     		lsrs	r3, r3, #8
ARM GAS  C:\Users\HENRYK~1\AppData\Local\Temp\ccX4hDQ1.s 			page 22


 411 0150 9BB2     		uxth	r3, r3
 412 0152 DBB2     		uxtb	r3, r3
 413 0154 1344     		add	r3, r3, r2
 414 0156 87F83B31 		strb	r3, [r7, #315]
 401:main.c        **** 					err = CyBtldr_VerifyRow(arrayId, rowNum, checksum2);
 415              		.loc 1 401 0
 416 015a 97F83A31 		ldrb	r3, [r7, #314]	@ zero_extendqisi2
 417 015e B7F83811 		ldrh	r1, [r7, #312]
 418 0162 97F83B21 		ldrb	r2, [r7, #315]	@ zero_extendqisi2
 419 0166 1846     		mov	r0, r3
 420 0168 FFF7FEFF 		bl	CyBtldr_VerifyRow
 421 016c 0346     		mov	r3, r0
 422 016e A7F84631 		strh	r3, [r7, #326]	@ movhi
 423              	.L9:
 402:main.c        **** 				}
 403:main.c        ****             }
 404:main.c        **** 			/* Increment the linCntr */
 405:main.c        **** 			lineCntr++;
 424              		.loc 1 405 0
 425 0172 D7F84031 		ldr	r3, [r7, #320]
 426 0176 0133     		adds	r3, r3, #1
 427 0178 C7F84031 		str	r3, [r7, #320]
 428              	.L8:
 381:main.c        **** 		{
 429              		.loc 1 381 0
 430 017c B7F84631 		ldrh	r3, [r7, #326]
 431 0180 002B     		cmp	r3, #0
 432 0182 05D1     		bne	.L10
 381:main.c        **** 		{
 433              		.loc 1 381 0 is_stmt 0 discriminator 1
 434 0184 3B46     		mov	r3, r7
 435 0186 D7F84021 		ldr	r2, [r7, #320]
 436 018a 1B68     		ldr	r3, [r3]
 437 018c 9A42     		cmp	r2, r3
 438 018e 88D3     		bcc	.L11
 439              	.L10:
 406:main.c        **** 		}
 407:main.c        **** 		/* End Bootloader Operation */
 408:main.c        **** 		CyBtldr_EndBootloadOperation();
 440              		.loc 1 408 0 is_stmt 1
 441 0190 FFF7FEFF 		bl	CyBtldr_EndBootloadOperation
 442              	.L7:
 409:main.c        **** 	}
 410:main.c        **** 	return(err);
 443              		.loc 1 410 0
 444 0194 B7F84631 		ldrh	r3, [r7, #326]
 411:main.c        **** 
 412:main.c        **** }
 445              		.loc 1 412 0
 446 0198 1846     		mov	r0, r3
 447 019a 07F5A477 		add	r7, r7, #328
 448              		.cfi_def_cfa_offset 8
 449 019e BD46     		mov	sp, r7
 450              		.cfi_def_cfa_register 13
 451              		@ sp needed
 452 01a0 80BD     		pop	{r7, pc}
 453              	.L14:
ARM GAS  C:\Users\HENRYK~1\AppData\Local\Temp\ccX4hDQ1.s 			page 23


 454 01a2 00BF     		.align	2
 455              	.L13:
 456 01a4 00000000 		.word	comm1
 457              		.cfi_endproc
 458              	.LFE65:
 459              		.size	BootloadStringImage, .-BootloadStringImage
 460              		.text
 461              	.Letext0:
 462              		.file 2 "c:\\program files (x86)\\cypress\\psoc creator\\4.2\\psoc creator\\import\\gnu\\arm\\5.4.
 463              		.file 3 "c:\\program files (x86)\\cypress\\psoc creator\\4.2\\psoc creator\\import\\gnu\\arm\\5.4.
 464              		.file 4 "Generated_Source\\PSoC5/cytypes.h"
 465              		.file 5 "./cybtldr_command.h"
 466              		.file 6 "./cybtldr_api.h"
 467              		.file 7 "Generated_Source\\PSoC5/core_cm3.h"
 468              		.file 8 "StringImage2.h"