ARM GAS  C:\Users\HENRYK~1\AppData\Local\Temp\ccafoOnE.s 			page 1


   1              		.syntax unified
   2              		.cpu cortex-m3
   3              		.fpu softvfp
   4              		.eabi_attribute 20, 1
   5              		.eabi_attribute 21, 1
   6              		.eabi_attribute 23, 3
   7              		.eabi_attribute 24, 1
   8              		.eabi_attribute 25, 1
   9              		.eabi_attribute 26, 1
  10              		.eabi_attribute 30, 6
  11              		.eabi_attribute 34, 1
  12              		.eabi_attribute 18, 4
  13              		.thumb
  14              		.syntax unified
  15              		.file	"Upstream_485_INT.c"
  16              		.text
  17              	.Ltext0:
  18              		.cfi_sections	.debug_frame
  19              		.section	.text.Upstream_485_RXISR,"ax",%progbits
  20              		.align	2
  21              		.global	Upstream_485_RXISR
  22              		.thumb
  23              		.thumb_func
  24              		.type	Upstream_485_RXISR, %function
  25              	Upstream_485_RXISR:
  26              	.LFB0:
  27              		.file 1 "Generated_Source\\PSoC5\\Upstream_485_INT.c"
   1:Generated_Source\PSoC5/Upstream_485_INT.c **** /*******************************************************************************
   2:Generated_Source\PSoC5/Upstream_485_INT.c **** * File Name: Upstream_485INT.c
   3:Generated_Source\PSoC5/Upstream_485_INT.c **** * Version 2.50
   4:Generated_Source\PSoC5/Upstream_485_INT.c **** *
   5:Generated_Source\PSoC5/Upstream_485_INT.c **** * Description:
   6:Generated_Source\PSoC5/Upstream_485_INT.c **** *  This file provides all Interrupt Service functionality of the UART component
   7:Generated_Source\PSoC5/Upstream_485_INT.c **** *
   8:Generated_Source\PSoC5/Upstream_485_INT.c **** ********************************************************************************
   9:Generated_Source\PSoC5/Upstream_485_INT.c **** * Copyright 2008-2015, Cypress Semiconductor Corporation.  All rights reserved.
  10:Generated_Source\PSoC5/Upstream_485_INT.c **** * You may use this file only in accordance with the license, terms, conditions,
  11:Generated_Source\PSoC5/Upstream_485_INT.c **** * disclaimers, and limitations in the end user license agreement accompanying
  12:Generated_Source\PSoC5/Upstream_485_INT.c **** * the software package with which this file was provided.
  13:Generated_Source\PSoC5/Upstream_485_INT.c **** *******************************************************************************/
  14:Generated_Source\PSoC5/Upstream_485_INT.c **** 
  15:Generated_Source\PSoC5/Upstream_485_INT.c **** #include "Upstream_485.h"
  16:Generated_Source\PSoC5/Upstream_485_INT.c **** #include "cyapicallbacks.h"
  17:Generated_Source\PSoC5/Upstream_485_INT.c **** 
  18:Generated_Source\PSoC5/Upstream_485_INT.c **** 
  19:Generated_Source\PSoC5/Upstream_485_INT.c **** /***************************************
  20:Generated_Source\PSoC5/Upstream_485_INT.c **** * Custom Declarations
  21:Generated_Source\PSoC5/Upstream_485_INT.c **** ***************************************/
  22:Generated_Source\PSoC5/Upstream_485_INT.c **** /* `#START CUSTOM_DECLARATIONS` Place your declaration here */
  23:Generated_Source\PSoC5/Upstream_485_INT.c **** 
  24:Generated_Source\PSoC5/Upstream_485_INT.c **** /* `#END` */
  25:Generated_Source\PSoC5/Upstream_485_INT.c **** 
  26:Generated_Source\PSoC5/Upstream_485_INT.c **** #if (Upstream_485_RX_INTERRUPT_ENABLED && (Upstream_485_RX_ENABLED || Upstream_485_HD_ENABLED))
  27:Generated_Source\PSoC5/Upstream_485_INT.c ****     /*******************************************************************************
  28:Generated_Source\PSoC5/Upstream_485_INT.c ****     * Function Name: Upstream_485_RXISR
  29:Generated_Source\PSoC5/Upstream_485_INT.c ****     ********************************************************************************
  30:Generated_Source\PSoC5/Upstream_485_INT.c ****     *
ARM GAS  C:\Users\HENRYK~1\AppData\Local\Temp\ccafoOnE.s 			page 2


  31:Generated_Source\PSoC5/Upstream_485_INT.c ****     * Summary:
  32:Generated_Source\PSoC5/Upstream_485_INT.c ****     *  Interrupt Service Routine for RX portion of the UART
  33:Generated_Source\PSoC5/Upstream_485_INT.c ****     *
  34:Generated_Source\PSoC5/Upstream_485_INT.c ****     * Parameters:
  35:Generated_Source\PSoC5/Upstream_485_INT.c ****     *  None.
  36:Generated_Source\PSoC5/Upstream_485_INT.c ****     *
  37:Generated_Source\PSoC5/Upstream_485_INT.c ****     * Return:
  38:Generated_Source\PSoC5/Upstream_485_INT.c ****     *  None.
  39:Generated_Source\PSoC5/Upstream_485_INT.c ****     *
  40:Generated_Source\PSoC5/Upstream_485_INT.c ****     * Global Variables:
  41:Generated_Source\PSoC5/Upstream_485_INT.c ****     *  Upstream_485_rxBuffer - RAM buffer pointer for save received data.
  42:Generated_Source\PSoC5/Upstream_485_INT.c ****     *  Upstream_485_rxBufferWrite - cyclic index for write to rxBuffer,
  43:Generated_Source\PSoC5/Upstream_485_INT.c ****     *     increments after each byte saved to buffer.
  44:Generated_Source\PSoC5/Upstream_485_INT.c ****     *  Upstream_485_rxBufferRead - cyclic index for read from rxBuffer,
  45:Generated_Source\PSoC5/Upstream_485_INT.c ****     *     checked to detect overflow condition.
  46:Generated_Source\PSoC5/Upstream_485_INT.c ****     *  Upstream_485_rxBufferOverflow - software overflow flag. Set to one
  47:Generated_Source\PSoC5/Upstream_485_INT.c ****     *     when Upstream_485_rxBufferWrite index overtakes
  48:Generated_Source\PSoC5/Upstream_485_INT.c ****     *     Upstream_485_rxBufferRead index.
  49:Generated_Source\PSoC5/Upstream_485_INT.c ****     *  Upstream_485_rxBufferLoopDetect - additional variable to detect overflow.
  50:Generated_Source\PSoC5/Upstream_485_INT.c ****     *     Set to one when Upstream_485_rxBufferWrite is equal to
  51:Generated_Source\PSoC5/Upstream_485_INT.c ****     *    Upstream_485_rxBufferRead
  52:Generated_Source\PSoC5/Upstream_485_INT.c ****     *  Upstream_485_rxAddressMode - this variable contains the Address mode,
  53:Generated_Source\PSoC5/Upstream_485_INT.c ****     *     selected in customizer or set by UART_SetRxAddressMode() API.
  54:Generated_Source\PSoC5/Upstream_485_INT.c ****     *  Upstream_485_rxAddressDetected - set to 1 when correct address received,
  55:Generated_Source\PSoC5/Upstream_485_INT.c ****     *     and analysed to store following addressed data bytes to the buffer.
  56:Generated_Source\PSoC5/Upstream_485_INT.c ****     *     When not correct address received, set to 0 to skip following data bytes.
  57:Generated_Source\PSoC5/Upstream_485_INT.c ****     *
  58:Generated_Source\PSoC5/Upstream_485_INT.c ****     *******************************************************************************/
  59:Generated_Source\PSoC5/Upstream_485_INT.c ****     CY_ISR(Upstream_485_RXISR)
  60:Generated_Source\PSoC5/Upstream_485_INT.c ****     {
  28              		.loc 1 60 0
  29              		.cfi_startproc
  30              		@ args = 0, pretend = 0, frame = 8
  31              		@ frame_needed = 1, uses_anonymous_args = 0
  32              		@ link register save eliminated.
  33 0000 80B4     		push	{r7}
  34              		.cfi_def_cfa_offset 4
  35              		.cfi_offset 7, -4
  36 0002 83B0     		sub	sp, sp, #12
  37              		.cfi_def_cfa_offset 16
  38 0004 00AF     		add	r7, sp, #0
  39              		.cfi_def_cfa_register 7
  61:Generated_Source\PSoC5/Upstream_485_INT.c ****         uint8 readData;
  62:Generated_Source\PSoC5/Upstream_485_INT.c ****         uint8 readStatus;
  63:Generated_Source\PSoC5/Upstream_485_INT.c ****         uint8 increment_pointer = 0u;
  40              		.loc 1 63 0
  41 0006 0023     		movs	r3, #0
  42 0008 FB71     		strb	r3, [r7, #7]
  43              	.L6:
  64:Generated_Source\PSoC5/Upstream_485_INT.c **** 
  65:Generated_Source\PSoC5/Upstream_485_INT.c ****     #if(CY_PSOC3)
  66:Generated_Source\PSoC5/Upstream_485_INT.c ****         uint8 int_en;
  67:Generated_Source\PSoC5/Upstream_485_INT.c ****     #endif /* (CY_PSOC3) */
  68:Generated_Source\PSoC5/Upstream_485_INT.c **** 
  69:Generated_Source\PSoC5/Upstream_485_INT.c ****     #ifdef Upstream_485_RXISR_ENTRY_CALLBACK
  70:Generated_Source\PSoC5/Upstream_485_INT.c ****         Upstream_485_RXISR_EntryCallback();
  71:Generated_Source\PSoC5/Upstream_485_INT.c ****     #endif /* Upstream_485_RXISR_ENTRY_CALLBACK */
ARM GAS  C:\Users\HENRYK~1\AppData\Local\Temp\ccafoOnE.s 			page 3


  72:Generated_Source\PSoC5/Upstream_485_INT.c **** 
  73:Generated_Source\PSoC5/Upstream_485_INT.c ****         /* User code required at start of ISR */
  74:Generated_Source\PSoC5/Upstream_485_INT.c ****         /* `#START Upstream_485_RXISR_START` */
  75:Generated_Source\PSoC5/Upstream_485_INT.c **** 
  76:Generated_Source\PSoC5/Upstream_485_INT.c ****         /* `#END` */
  77:Generated_Source\PSoC5/Upstream_485_INT.c **** 
  78:Generated_Source\PSoC5/Upstream_485_INT.c ****     #if(CY_PSOC3)   /* Make sure nested interrupt is enabled */
  79:Generated_Source\PSoC5/Upstream_485_INT.c ****         int_en = EA;
  80:Generated_Source\PSoC5/Upstream_485_INT.c ****         CyGlobalIntEnable;
  81:Generated_Source\PSoC5/Upstream_485_INT.c ****     #endif /* (CY_PSOC3) */
  82:Generated_Source\PSoC5/Upstream_485_INT.c **** 
  83:Generated_Source\PSoC5/Upstream_485_INT.c ****         do
  84:Generated_Source\PSoC5/Upstream_485_INT.c ****         {
  85:Generated_Source\PSoC5/Upstream_485_INT.c ****             /* Read receiver status register */
  86:Generated_Source\PSoC5/Upstream_485_INT.c ****             readStatus = Upstream_485_RXSTATUS_REG;
  44              		.loc 1 86 0
  45 000a 2C4B     		ldr	r3, .L7
  46 000c 1B78     		ldrb	r3, [r3]
  47 000e BB71     		strb	r3, [r7, #6]
  87:Generated_Source\PSoC5/Upstream_485_INT.c ****             /* Copy the same status to readData variable for backward compatibility support 
  88:Generated_Source\PSoC5/Upstream_485_INT.c ****             *  of the user code in Upstream_485_RXISR_ERROR` section. 
  89:Generated_Source\PSoC5/Upstream_485_INT.c ****             */
  90:Generated_Source\PSoC5/Upstream_485_INT.c ****             readData = readStatus;
  48              		.loc 1 90 0
  49 0010 BB79     		ldrb	r3, [r7, #6]
  50 0012 7B71     		strb	r3, [r7, #5]
  91:Generated_Source\PSoC5/Upstream_485_INT.c **** 
  92:Generated_Source\PSoC5/Upstream_485_INT.c ****             if((readStatus & (Upstream_485_RX_STS_BREAK | 
  93:Generated_Source\PSoC5/Upstream_485_INT.c ****                             Upstream_485_RX_STS_PAR_ERROR |
  94:Generated_Source\PSoC5/Upstream_485_INT.c ****                             Upstream_485_RX_STS_STOP_ERROR | 
  95:Generated_Source\PSoC5/Upstream_485_INT.c ****                             Upstream_485_RX_STS_OVERRUN)) != 0u)
  51              		.loc 1 95 0
  52 0014 BB79     		ldrb	r3, [r7, #6]	@ zero_extendqisi2
  53 0016 03F01E03 		and	r3, r3, #30
  92:Generated_Source\PSoC5/Upstream_485_INT.c ****                             Upstream_485_RX_STS_PAR_ERROR |
  54              		.loc 1 92 0
  55 001a 002B     		cmp	r3, #0
  56 001c 0CD0     		beq	.L2
  96:Generated_Source\PSoC5/Upstream_485_INT.c ****             {
  97:Generated_Source\PSoC5/Upstream_485_INT.c ****                 /* ERROR handling. */
  98:Generated_Source\PSoC5/Upstream_485_INT.c ****                 Upstream_485_errorStatus |= readStatus & ( Upstream_485_RX_STS_BREAK | 
  57              		.loc 1 98 0
  58 001e 97F90630 		ldrsb	r3, [r7, #6]
  59 0022 03F01E03 		and	r3, r3, #30
  60 0026 5AB2     		sxtb	r2, r3
  61 0028 254B     		ldr	r3, .L7+4
  62 002a 1B78     		ldrb	r3, [r3]	@ zero_extendqisi2
  63 002c 5BB2     		sxtb	r3, r3
  64 002e 1343     		orrs	r3, r3, r2
  65 0030 5BB2     		sxtb	r3, r3
  66 0032 DAB2     		uxtb	r2, r3
  67 0034 224B     		ldr	r3, .L7+4
  68 0036 1A70     		strb	r2, [r3]
  69              	.L2:
  99:Generated_Source\PSoC5/Upstream_485_INT.c ****                                                             Upstream_485_RX_STS_PAR_ERROR | 
 100:Generated_Source\PSoC5/Upstream_485_INT.c ****                                                             Upstream_485_RX_STS_STOP_ERROR | 
 101:Generated_Source\PSoC5/Upstream_485_INT.c ****                                                             Upstream_485_RX_STS_OVERRUN);
ARM GAS  C:\Users\HENRYK~1\AppData\Local\Temp\ccafoOnE.s 			page 4


 102:Generated_Source\PSoC5/Upstream_485_INT.c ****                 /* `#START Upstream_485_RXISR_ERROR` */
 103:Generated_Source\PSoC5/Upstream_485_INT.c **** 
 104:Generated_Source\PSoC5/Upstream_485_INT.c ****                 /* `#END` */
 105:Generated_Source\PSoC5/Upstream_485_INT.c ****                 
 106:Generated_Source\PSoC5/Upstream_485_INT.c ****             #ifdef Upstream_485_RXISR_ERROR_CALLBACK
 107:Generated_Source\PSoC5/Upstream_485_INT.c ****                 Upstream_485_RXISR_ERROR_Callback();
 108:Generated_Source\PSoC5/Upstream_485_INT.c ****             #endif /* Upstream_485_RXISR_ERROR_CALLBACK */
 109:Generated_Source\PSoC5/Upstream_485_INT.c ****             }
 110:Generated_Source\PSoC5/Upstream_485_INT.c ****             
 111:Generated_Source\PSoC5/Upstream_485_INT.c ****             if((readStatus & Upstream_485_RX_STS_FIFO_NOTEMPTY) != 0u)
  70              		.loc 1 111 0
  71 0038 BB79     		ldrb	r3, [r7, #6]	@ zero_extendqisi2
  72 003a 03F02003 		and	r3, r3, #32
  73 003e 002B     		cmp	r3, #0
  74 0040 31D0     		beq	.L3
 112:Generated_Source\PSoC5/Upstream_485_INT.c ****             {
 113:Generated_Source\PSoC5/Upstream_485_INT.c ****                 /* Read data from the RX data register */
 114:Generated_Source\PSoC5/Upstream_485_INT.c ****                 readData = Upstream_485_RXDATA_REG;
  75              		.loc 1 114 0
  76 0042 204B     		ldr	r3, .L7+8
  77 0044 1B78     		ldrb	r3, [r3]
  78 0046 7B71     		strb	r3, [r7, #5]
 115:Generated_Source\PSoC5/Upstream_485_INT.c ****             #if (Upstream_485_RXHW_ADDRESS_ENABLED)
 116:Generated_Source\PSoC5/Upstream_485_INT.c ****                 if(Upstream_485_rxAddressMode == (uint8)Upstream_485__B_UART__AM_SW_DETECT_TO_BUFFE
 117:Generated_Source\PSoC5/Upstream_485_INT.c ****                 {
 118:Generated_Source\PSoC5/Upstream_485_INT.c ****                     if((readStatus & Upstream_485_RX_STS_MRKSPC) != 0u)
 119:Generated_Source\PSoC5/Upstream_485_INT.c ****                     {
 120:Generated_Source\PSoC5/Upstream_485_INT.c ****                         if ((readStatus & Upstream_485_RX_STS_ADDR_MATCH) != 0u)
 121:Generated_Source\PSoC5/Upstream_485_INT.c ****                         {
 122:Generated_Source\PSoC5/Upstream_485_INT.c ****                             Upstream_485_rxAddressDetected = 1u;
 123:Generated_Source\PSoC5/Upstream_485_INT.c ****                         }
 124:Generated_Source\PSoC5/Upstream_485_INT.c ****                         else
 125:Generated_Source\PSoC5/Upstream_485_INT.c ****                         {
 126:Generated_Source\PSoC5/Upstream_485_INT.c ****                             Upstream_485_rxAddressDetected = 0u;
 127:Generated_Source\PSoC5/Upstream_485_INT.c ****                         }
 128:Generated_Source\PSoC5/Upstream_485_INT.c ****                     }
 129:Generated_Source\PSoC5/Upstream_485_INT.c ****                     if(Upstream_485_rxAddressDetected != 0u)
 130:Generated_Source\PSoC5/Upstream_485_INT.c ****                     {   /* Store only addressed data */
 131:Generated_Source\PSoC5/Upstream_485_INT.c ****                         Upstream_485_rxBuffer[Upstream_485_rxBufferWrite] = readData;
 132:Generated_Source\PSoC5/Upstream_485_INT.c ****                         increment_pointer = 1u;
 133:Generated_Source\PSoC5/Upstream_485_INT.c ****                     }
 134:Generated_Source\PSoC5/Upstream_485_INT.c ****                 }
 135:Generated_Source\PSoC5/Upstream_485_INT.c ****                 else /* Without software addressing */
 136:Generated_Source\PSoC5/Upstream_485_INT.c ****                 {
 137:Generated_Source\PSoC5/Upstream_485_INT.c ****                     Upstream_485_rxBuffer[Upstream_485_rxBufferWrite] = readData;
 138:Generated_Source\PSoC5/Upstream_485_INT.c ****                     increment_pointer = 1u;
 139:Generated_Source\PSoC5/Upstream_485_INT.c ****                 }
 140:Generated_Source\PSoC5/Upstream_485_INT.c ****             #else  /* Without addressing */
 141:Generated_Source\PSoC5/Upstream_485_INT.c ****                 Upstream_485_rxBuffer[Upstream_485_rxBufferWrite] = readData;
  79              		.loc 1 141 0
  80 0048 1F4B     		ldr	r3, .L7+12
  81 004a 1B78     		ldrb	r3, [r3]
  82 004c DBB2     		uxtb	r3, r3
  83 004e 1946     		mov	r1, r3
  84 0050 1E4A     		ldr	r2, .L7+16
  85 0052 7B79     		ldrb	r3, [r7, #5]
  86 0054 5354     		strb	r3, [r2, r1]
ARM GAS  C:\Users\HENRYK~1\AppData\Local\Temp\ccafoOnE.s 			page 5


 142:Generated_Source\PSoC5/Upstream_485_INT.c ****                 increment_pointer = 1u;
  87              		.loc 1 142 0
  88 0056 0123     		movs	r3, #1
  89 0058 FB71     		strb	r3, [r7, #7]
 143:Generated_Source\PSoC5/Upstream_485_INT.c ****             #endif /* (Upstream_485_RXHW_ADDRESS_ENABLED) */
 144:Generated_Source\PSoC5/Upstream_485_INT.c **** 
 145:Generated_Source\PSoC5/Upstream_485_INT.c ****                 /* Do not increment buffer pointer when skip not addressed data */
 146:Generated_Source\PSoC5/Upstream_485_INT.c ****                 if(increment_pointer != 0u)
  90              		.loc 1 146 0
  91 005a FB79     		ldrb	r3, [r7, #7]	@ zero_extendqisi2
  92 005c 002B     		cmp	r3, #0
  93 005e 22D0     		beq	.L3
 147:Generated_Source\PSoC5/Upstream_485_INT.c ****                 {
 148:Generated_Source\PSoC5/Upstream_485_INT.c ****                     if(Upstream_485_rxBufferLoopDetect != 0u)
  94              		.loc 1 148 0
  95 0060 1B4B     		ldr	r3, .L7+20
  96 0062 1B78     		ldrb	r3, [r3]
  97 0064 DBB2     		uxtb	r3, r3
  98 0066 002B     		cmp	r3, #0
  99 0068 02D0     		beq	.L4
 149:Generated_Source\PSoC5/Upstream_485_INT.c ****                     {   /* Set Software Buffer status Overflow */
 150:Generated_Source\PSoC5/Upstream_485_INT.c ****                         Upstream_485_rxBufferOverflow = 1u;
 100              		.loc 1 150 0
 101 006a 1A4B     		ldr	r3, .L7+24
 102 006c 0122     		movs	r2, #1
 103 006e 1A70     		strb	r2, [r3]
 104              	.L4:
 151:Generated_Source\PSoC5/Upstream_485_INT.c ****                     }
 152:Generated_Source\PSoC5/Upstream_485_INT.c ****                     /* Set next pointer. */
 153:Generated_Source\PSoC5/Upstream_485_INT.c ****                     Upstream_485_rxBufferWrite++;
 105              		.loc 1 153 0
 106 0070 154B     		ldr	r3, .L7+12
 107 0072 1B78     		ldrb	r3, [r3]
 108 0074 DBB2     		uxtb	r3, r3
 109 0076 0133     		adds	r3, r3, #1
 110 0078 DAB2     		uxtb	r2, r3
 111 007a 134B     		ldr	r3, .L7+12
 112 007c 1A70     		strb	r2, [r3]
 154:Generated_Source\PSoC5/Upstream_485_INT.c **** 
 155:Generated_Source\PSoC5/Upstream_485_INT.c ****                     /* Check pointer for a loop condition */
 156:Generated_Source\PSoC5/Upstream_485_INT.c ****                     if(Upstream_485_rxBufferWrite >= Upstream_485_RX_BUFFER_SIZE)
 113              		.loc 1 156 0
 114 007e 124B     		ldr	r3, .L7+12
 115 0080 1B78     		ldrb	r3, [r3]
 116 0082 DBB2     		uxtb	r3, r3
 117 0084 5BB2     		sxtb	r3, r3
 118 0086 002B     		cmp	r3, #0
 119 0088 02DA     		bge	.L5
 157:Generated_Source\PSoC5/Upstream_485_INT.c ****                     {
 158:Generated_Source\PSoC5/Upstream_485_INT.c ****                         Upstream_485_rxBufferWrite = 0u;
 120              		.loc 1 158 0
 121 008a 0F4B     		ldr	r3, .L7+12
 122 008c 0022     		movs	r2, #0
 123 008e 1A70     		strb	r2, [r3]
 124              	.L5:
 159:Generated_Source\PSoC5/Upstream_485_INT.c ****                     }
 160:Generated_Source\PSoC5/Upstream_485_INT.c **** 
ARM GAS  C:\Users\HENRYK~1\AppData\Local\Temp\ccafoOnE.s 			page 6


 161:Generated_Source\PSoC5/Upstream_485_INT.c ****                     /* Detect pre-overload condition and set flag */
 162:Generated_Source\PSoC5/Upstream_485_INT.c ****                     if(Upstream_485_rxBufferWrite == Upstream_485_rxBufferRead)
 125              		.loc 1 162 0
 126 0090 0D4B     		ldr	r3, .L7+12
 127 0092 1B78     		ldrb	r3, [r3]
 128 0094 DAB2     		uxtb	r2, r3
 129 0096 104B     		ldr	r3, .L7+28
 130 0098 1B78     		ldrb	r3, [r3]
 131 009a DBB2     		uxtb	r3, r3
 132 009c 9A42     		cmp	r2, r3
 133 009e 02D1     		bne	.L3
 163:Generated_Source\PSoC5/Upstream_485_INT.c ****                     {
 164:Generated_Source\PSoC5/Upstream_485_INT.c ****                         Upstream_485_rxBufferLoopDetect = 1u;
 134              		.loc 1 164 0
 135 00a0 0B4B     		ldr	r3, .L7+20
 136 00a2 0122     		movs	r2, #1
 137 00a4 1A70     		strb	r2, [r3]
 138              	.L3:
 165:Generated_Source\PSoC5/Upstream_485_INT.c ****                         /* When Hardware Flow Control selected */
 166:Generated_Source\PSoC5/Upstream_485_INT.c ****                         #if (Upstream_485_FLOW_CONTROL != 0u)
 167:Generated_Source\PSoC5/Upstream_485_INT.c ****                             /* Disable RX interrupt mask, it is enabled when user read data from th
 168:Generated_Source\PSoC5/Upstream_485_INT.c ****                             Upstream_485_RXSTATUS_MASK_REG  &= (uint8)~Upstream_485_RX_STS_FIFO_NOT
 169:Generated_Source\PSoC5/Upstream_485_INT.c ****                             CyIntClearPending(Upstream_485_RX_VECT_NUM);
 170:Generated_Source\PSoC5/Upstream_485_INT.c ****                             break; /* Break the reading of the FIFO loop, leave the data there for 
 171:Generated_Source\PSoC5/Upstream_485_INT.c ****                         #endif /* (Upstream_485_FLOW_CONTROL != 0u) */
 172:Generated_Source\PSoC5/Upstream_485_INT.c ****                     }
 173:Generated_Source\PSoC5/Upstream_485_INT.c ****                 }
 174:Generated_Source\PSoC5/Upstream_485_INT.c ****             }
 175:Generated_Source\PSoC5/Upstream_485_INT.c ****         }while((readStatus & Upstream_485_RX_STS_FIFO_NOTEMPTY) != 0u);
 139              		.loc 1 175 0
 140 00a6 BB79     		ldrb	r3, [r7, #6]	@ zero_extendqisi2
 141 00a8 03F02003 		and	r3, r3, #32
 142 00ac 002B     		cmp	r3, #0
 143 00ae ACD1     		bne	.L6
 176:Generated_Source\PSoC5/Upstream_485_INT.c **** 
 177:Generated_Source\PSoC5/Upstream_485_INT.c ****         /* User code required at end of ISR (Optional) */
 178:Generated_Source\PSoC5/Upstream_485_INT.c ****         /* `#START Upstream_485_RXISR_END` */
 179:Generated_Source\PSoC5/Upstream_485_INT.c **** 
 180:Generated_Source\PSoC5/Upstream_485_INT.c ****         /* `#END` */
 181:Generated_Source\PSoC5/Upstream_485_INT.c **** 
 182:Generated_Source\PSoC5/Upstream_485_INT.c ****     #ifdef Upstream_485_RXISR_EXIT_CALLBACK
 183:Generated_Source\PSoC5/Upstream_485_INT.c ****         Upstream_485_RXISR_ExitCallback();
 184:Generated_Source\PSoC5/Upstream_485_INT.c ****     #endif /* Upstream_485_RXISR_EXIT_CALLBACK */
 185:Generated_Source\PSoC5/Upstream_485_INT.c **** 
 186:Generated_Source\PSoC5/Upstream_485_INT.c ****     #if(CY_PSOC3)
 187:Generated_Source\PSoC5/Upstream_485_INT.c ****         EA = int_en;
 188:Generated_Source\PSoC5/Upstream_485_INT.c ****     #endif /* (CY_PSOC3) */
 189:Generated_Source\PSoC5/Upstream_485_INT.c ****     }
 144              		.loc 1 189 0
 145 00b0 00BF     		nop
 146 00b2 0C37     		adds	r7, r7, #12
 147              		.cfi_def_cfa_offset 4
 148 00b4 BD46     		mov	sp, r7
 149              		.cfi_def_cfa_register 13
 150              		@ sp needed
 151 00b6 80BC     		pop	{r7}
 152              		.cfi_restore 7
ARM GAS  C:\Users\HENRYK~1\AppData\Local\Temp\ccafoOnE.s 			page 7


 153              		.cfi_def_cfa_offset 0
 154 00b8 7047     		bx	lr
 155              	.L8:
 156 00ba 00BF     		.align	2
 157              	.L7:
 158 00bc 69650040 		.word	1073767785
 159 00c0 00000000 		.word	Upstream_485_errorStatus
 160 00c4 48650040 		.word	1073767752
 161 00c8 00000000 		.word	Upstream_485_rxBufferWrite
 162 00cc 00000000 		.word	Upstream_485_rxBuffer
 163 00d0 00000000 		.word	Upstream_485_rxBufferLoopDetect
 164 00d4 00000000 		.word	Upstream_485_rxBufferOverflow
 165 00d8 00000000 		.word	Upstream_485_rxBufferRead
 166              		.cfi_endproc
 167              	.LFE0:
 168              		.size	Upstream_485_RXISR, .-Upstream_485_RXISR
 169              		.section	.text.Upstream_485_TXISR,"ax",%progbits
 170              		.align	2
 171              		.global	Upstream_485_TXISR
 172              		.thumb
 173              		.thumb_func
 174              		.type	Upstream_485_TXISR, %function
 175              	Upstream_485_TXISR:
 176              	.LFB1:
 190:Generated_Source\PSoC5/Upstream_485_INT.c ****     
 191:Generated_Source\PSoC5/Upstream_485_INT.c **** #endif /* (Upstream_485_RX_INTERRUPT_ENABLED && (Upstream_485_RX_ENABLED || Upstream_485_HD_ENABLED
 192:Generated_Source\PSoC5/Upstream_485_INT.c **** 
 193:Generated_Source\PSoC5/Upstream_485_INT.c **** 
 194:Generated_Source\PSoC5/Upstream_485_INT.c **** #if (Upstream_485_TX_INTERRUPT_ENABLED && Upstream_485_TX_ENABLED)
 195:Generated_Source\PSoC5/Upstream_485_INT.c ****     /*******************************************************************************
 196:Generated_Source\PSoC5/Upstream_485_INT.c ****     * Function Name: Upstream_485_TXISR
 197:Generated_Source\PSoC5/Upstream_485_INT.c ****     ********************************************************************************
 198:Generated_Source\PSoC5/Upstream_485_INT.c ****     *
 199:Generated_Source\PSoC5/Upstream_485_INT.c ****     * Summary:
 200:Generated_Source\PSoC5/Upstream_485_INT.c ****     * Interrupt Service Routine for the TX portion of the UART
 201:Generated_Source\PSoC5/Upstream_485_INT.c ****     *
 202:Generated_Source\PSoC5/Upstream_485_INT.c ****     * Parameters:
 203:Generated_Source\PSoC5/Upstream_485_INT.c ****     *  None.
 204:Generated_Source\PSoC5/Upstream_485_INT.c ****     *
 205:Generated_Source\PSoC5/Upstream_485_INT.c ****     * Return:
 206:Generated_Source\PSoC5/Upstream_485_INT.c ****     *  None.
 207:Generated_Source\PSoC5/Upstream_485_INT.c ****     *
 208:Generated_Source\PSoC5/Upstream_485_INT.c ****     * Global Variables:
 209:Generated_Source\PSoC5/Upstream_485_INT.c ****     *  Upstream_485_txBuffer - RAM buffer pointer for transmit data from.
 210:Generated_Source\PSoC5/Upstream_485_INT.c ****     *  Upstream_485_txBufferRead - cyclic index for read and transmit data
 211:Generated_Source\PSoC5/Upstream_485_INT.c ****     *     from txBuffer, increments after each transmitted byte.
 212:Generated_Source\PSoC5/Upstream_485_INT.c ****     *  Upstream_485_rxBufferWrite - cyclic index for write to txBuffer,
 213:Generated_Source\PSoC5/Upstream_485_INT.c ****     *     checked to detect available for transmission bytes.
 214:Generated_Source\PSoC5/Upstream_485_INT.c ****     *
 215:Generated_Source\PSoC5/Upstream_485_INT.c ****     *******************************************************************************/
 216:Generated_Source\PSoC5/Upstream_485_INT.c ****     CY_ISR(Upstream_485_TXISR)
 217:Generated_Source\PSoC5/Upstream_485_INT.c ****     {
 177              		.loc 1 217 0
 178              		.cfi_startproc
 179              		@ args = 0, pretend = 0, frame = 0
 180              		@ frame_needed = 1, uses_anonymous_args = 0
 181              		@ link register save eliminated.
ARM GAS  C:\Users\HENRYK~1\AppData\Local\Temp\ccafoOnE.s 			page 8


 182 0000 80B4     		push	{r7}
 183              		.cfi_def_cfa_offset 4
 184              		.cfi_offset 7, -4
 185 0002 00AF     		add	r7, sp, #0
 186              		.cfi_def_cfa_register 7
 218:Generated_Source\PSoC5/Upstream_485_INT.c ****     #if(CY_PSOC3)
 219:Generated_Source\PSoC5/Upstream_485_INT.c ****         uint8 int_en;
 220:Generated_Source\PSoC5/Upstream_485_INT.c ****     #endif /* (CY_PSOC3) */
 221:Generated_Source\PSoC5/Upstream_485_INT.c **** 
 222:Generated_Source\PSoC5/Upstream_485_INT.c ****     #ifdef Upstream_485_TXISR_ENTRY_CALLBACK
 223:Generated_Source\PSoC5/Upstream_485_INT.c ****         Upstream_485_TXISR_EntryCallback();
 224:Generated_Source\PSoC5/Upstream_485_INT.c ****     #endif /* Upstream_485_TXISR_ENTRY_CALLBACK */
 225:Generated_Source\PSoC5/Upstream_485_INT.c **** 
 226:Generated_Source\PSoC5/Upstream_485_INT.c ****         /* User code required at start of ISR */
 227:Generated_Source\PSoC5/Upstream_485_INT.c ****         /* `#START Upstream_485_TXISR_START` */
 228:Generated_Source\PSoC5/Upstream_485_INT.c **** 
 229:Generated_Source\PSoC5/Upstream_485_INT.c ****         /* `#END` */
 230:Generated_Source\PSoC5/Upstream_485_INT.c **** 
 231:Generated_Source\PSoC5/Upstream_485_INT.c ****     #if(CY_PSOC3)   /* Make sure nested interrupt is enabled */
 232:Generated_Source\PSoC5/Upstream_485_INT.c ****         int_en = EA;
 233:Generated_Source\PSoC5/Upstream_485_INT.c ****         CyGlobalIntEnable;
 234:Generated_Source\PSoC5/Upstream_485_INT.c ****     #endif /* (CY_PSOC3) */
 235:Generated_Source\PSoC5/Upstream_485_INT.c **** 
 236:Generated_Source\PSoC5/Upstream_485_INT.c ****         while((Upstream_485_txBufferRead != Upstream_485_txBufferWrite) &&
 187              		.loc 1 236 0
 188 0004 18E0     		b	.L10
 189              	.L13:
 237:Generated_Source\PSoC5/Upstream_485_INT.c ****              ((Upstream_485_TXSTATUS_REG & Upstream_485_TX_STS_FIFO_FULL) == 0u))
 238:Generated_Source\PSoC5/Upstream_485_INT.c ****         {
 239:Generated_Source\PSoC5/Upstream_485_INT.c ****             /* Check pointer wrap around */
 240:Generated_Source\PSoC5/Upstream_485_INT.c ****             if(Upstream_485_txBufferRead >= Upstream_485_TX_BUFFER_SIZE)
 190              		.loc 1 240 0
 191 0006 154B     		ldr	r3, .L15
 192 0008 1B78     		ldrb	r3, [r3]
 193 000a DBB2     		uxtb	r3, r3
 194 000c 5BB2     		sxtb	r3, r3
 195 000e 002B     		cmp	r3, #0
 196 0010 02DA     		bge	.L11
 241:Generated_Source\PSoC5/Upstream_485_INT.c ****             {
 242:Generated_Source\PSoC5/Upstream_485_INT.c ****                 Upstream_485_txBufferRead = 0u;
 197              		.loc 1 242 0
 198 0012 124B     		ldr	r3, .L15
 199 0014 0022     		movs	r2, #0
 200 0016 1A70     		strb	r2, [r3]
 201              	.L11:
 243:Generated_Source\PSoC5/Upstream_485_INT.c ****             }
 244:Generated_Source\PSoC5/Upstream_485_INT.c **** 
 245:Generated_Source\PSoC5/Upstream_485_INT.c ****             Upstream_485_TXDATA_REG = Upstream_485_txBuffer[Upstream_485_txBufferRead];
 202              		.loc 1 245 0
 203 0018 114B     		ldr	r3, .L15+4
 204 001a 104A     		ldr	r2, .L15
 205 001c 1278     		ldrb	r2, [r2]
 206 001e D2B2     		uxtb	r2, r2
 207 0020 1146     		mov	r1, r2
 208 0022 104A     		ldr	r2, .L15+8
 209 0024 525C     		ldrb	r2, [r2, r1]
 210 0026 D2B2     		uxtb	r2, r2
ARM GAS  C:\Users\HENRYK~1\AppData\Local\Temp\ccafoOnE.s 			page 9


 211 0028 1A70     		strb	r2, [r3]
 246:Generated_Source\PSoC5/Upstream_485_INT.c **** 
 247:Generated_Source\PSoC5/Upstream_485_INT.c ****             /* Set next pointer */
 248:Generated_Source\PSoC5/Upstream_485_INT.c ****             Upstream_485_txBufferRead++;
 212              		.loc 1 248 0
 213 002a 0C4B     		ldr	r3, .L15
 214 002c 1B78     		ldrb	r3, [r3]
 215 002e DBB2     		uxtb	r3, r3
 216 0030 0133     		adds	r3, r3, #1
 217 0032 DAB2     		uxtb	r2, r3
 218 0034 094B     		ldr	r3, .L15
 219 0036 1A70     		strb	r2, [r3]
 220              	.L10:
 236:Generated_Source\PSoC5/Upstream_485_INT.c ****              ((Upstream_485_TXSTATUS_REG & Upstream_485_TX_STS_FIFO_FULL) == 0u))
 221              		.loc 1 236 0
 222 0038 084B     		ldr	r3, .L15
 223 003a 1B78     		ldrb	r3, [r3]
 224 003c DAB2     		uxtb	r2, r3
 225 003e 0A4B     		ldr	r3, .L15+12
 226 0040 1B78     		ldrb	r3, [r3]	@ zero_extendqisi2
 227 0042 9A42     		cmp	r2, r3
 228 0044 06D0     		beq	.L14
 237:Generated_Source\PSoC5/Upstream_485_INT.c ****         {
 229              		.loc 1 237 0 discriminator 1
 230 0046 094B     		ldr	r3, .L15+16
 231 0048 1B78     		ldrb	r3, [r3]
 232 004a DBB2     		uxtb	r3, r3
 233 004c 03F00403 		and	r3, r3, #4
 236:Generated_Source\PSoC5/Upstream_485_INT.c ****              ((Upstream_485_TXSTATUS_REG & Upstream_485_TX_STS_FIFO_FULL) == 0u))
 234              		.loc 1 236 0 discriminator 1
 235 0050 002B     		cmp	r3, #0
 236 0052 D8D0     		beq	.L13
 237              	.L14:
 249:Generated_Source\PSoC5/Upstream_485_INT.c ****         }
 250:Generated_Source\PSoC5/Upstream_485_INT.c **** 
 251:Generated_Source\PSoC5/Upstream_485_INT.c ****         /* User code required at end of ISR (Optional) */
 252:Generated_Source\PSoC5/Upstream_485_INT.c ****         /* `#START Upstream_485_TXISR_END` */
 253:Generated_Source\PSoC5/Upstream_485_INT.c **** 
 254:Generated_Source\PSoC5/Upstream_485_INT.c ****         /* `#END` */
 255:Generated_Source\PSoC5/Upstream_485_INT.c **** 
 256:Generated_Source\PSoC5/Upstream_485_INT.c ****     #ifdef Upstream_485_TXISR_EXIT_CALLBACK
 257:Generated_Source\PSoC5/Upstream_485_INT.c ****         Upstream_485_TXISR_ExitCallback();
 258:Generated_Source\PSoC5/Upstream_485_INT.c ****     #endif /* Upstream_485_TXISR_EXIT_CALLBACK */
 259:Generated_Source\PSoC5/Upstream_485_INT.c **** 
 260:Generated_Source\PSoC5/Upstream_485_INT.c ****     #if(CY_PSOC3)
 261:Generated_Source\PSoC5/Upstream_485_INT.c ****         EA = int_en;
 262:Generated_Source\PSoC5/Upstream_485_INT.c ****     #endif /* (CY_PSOC3) */
 263:Generated_Source\PSoC5/Upstream_485_INT.c ****    }
 238              		.loc 1 263 0
 239 0054 00BF     		nop
 240 0056 BD46     		mov	sp, r7
 241              		.cfi_def_cfa_register 13
 242              		@ sp needed
 243 0058 80BC     		pop	{r7}
 244              		.cfi_restore 7
 245              		.cfi_def_cfa_offset 0
 246 005a 7047     		bx	lr
ARM GAS  C:\Users\HENRYK~1\AppData\Local\Temp\ccafoOnE.s 			page 10


 247              	.L16:
 248              		.align	2
 249              	.L15:
 250 005c 00000000 		.word	Upstream_485_txBufferRead
 251 0060 4B650040 		.word	1073767755
 252 0064 00000000 		.word	Upstream_485_txBuffer
 253 0068 00000000 		.word	Upstream_485_txBufferWrite
 254 006c 6B650040 		.word	1073767787
 255              		.cfi_endproc
 256              	.LFE1:
 257              		.size	Upstream_485_TXISR, .-Upstream_485_TXISR
 258              		.text
 259              	.Letext0:
 260              		.file 2 "Generated_Source\\PSoC5\\cytypes.h"
 261              		.file 3 "Generated_Source\\PSoC5\\Upstream_485.h"